Component: ARM Compiler 5.06 update 7 (build 960) Tool: armlink [4d3601]

==============================================================================

Section Cross References

    startup.o(RESET) refers to startup.o(STACK) for StackMem
    startup.o(RESET) refers to osasm.o(.text) for SVC_Handler
    startup.o(RESET) refers to os.o(i.SysTick_Handler) for SysTick_Handler
    startup.o(RESET) refers to uart0int.o(i.UART0_Handler) for UART0_Handler
    startup.o(RESET) refers to adct0atrigger.o(i.ADC0Seq0_Handler) for ADC0Seq0_Handler
    startup.o(RESET) refers to adct0atrigger.o(i.ADC0Seq3_Handler) for ADC0Seq3_Handler
    startup.o(RESET) refers to os.o(i.GPIOPortF_Handler) for GPIOPortF_Handler
    startup.o(RESET) refers to esp8266.o(i.UART2_Handler) for UART2_Handler
    startup.o(RESET) refers to can0.o(i.CAN0_Handler) for CAN0_Handler
    startup.o(RESET) refers to os.o(i.Timer4A_Handler) for Timer4A_Handler
    startup.o(RESET) refers to timer5a.o(i.Timer5A_Handler) for Timer5A_Handler
    startup.o(RESET) refers to wtimer0a.o(i.WideTimer0A_Handler) for WideTimer0A_Handler
    startup.o(RESET) refers to entry.o(.ARM.Collect$$$$00000000) for __main
    launchpad.o(i.LaunchPad_WaitForRelease) refers to launchpad.o(i.DelayMs) for DelayMs
    launchpad.o(i.LaunchPad_WaitForTouch) refers to launchpad.o(i.DelayMs) for DelayMs
    lab6.o(i.Buck_Fun) refers to os.o(i.OS_Kill) for OS_Kill
    lab6.o(i.Buck_Fun) refers to adc.o(i.ADC_In) for ADC_In
    lab6.o(i.Buck_Fun) refers to os.o(i.OS_Sleep) for OS_Sleep
    lab6.o(i.Buck_Fun) refers to lab6.o(.data) for Error_Num
    lab6.o(i.ButtonWork1) refers to os.o(i.OS_Id) for OS_Id
    lab6.o(i.ButtonWork1) refers to st7735.o(i.ST7735_Message) for ST7735_Message
    lab6.o(i.ButtonWork1) refers to os.o(i.OS_Kill) for OS_Kill
    lab6.o(i.ButtonWork1) refers to lab6.o(.data) for sequenceNum
    lab6.o(i.CANReceiveTask) refers to can0.o(i.CAN0_GetMail) for CAN0_GetMail
    lab6.o(i.CANReceiveTask) refers to st7735.o(i.ST7735_Message) for ST7735_Message
    lab6.o(i.CANReceiveTask) refers to lab6.o(.data) for RcvData
    lab6.o(i.CANSendTask) refers to can0.o(i.CAN0_SendData) for CAN0_SendData
    lab6.o(i.CANSendTask) refers to lab6.o(.data) for XmtData
    lab6.o(i.ConnectWifi) refers to esp8266.o(i.ESP8266_Init) for ESP8266_Init
    lab6.o(i.ConnectWifi) refers to st7735.o(i.ST7735_DrawString) for ST7735_DrawString
    lab6.o(i.ConnectWifi) refers to os.o(i.OS_Kill) for OS_Kill
    lab6.o(i.ConnectWifi) refers to esp8266.o(i.ESP8266_GetVersionNumber) for ESP8266_GetVersionNumber
    lab6.o(i.ConnectWifi) refers to esp8266.o(i.ESP8266_Connect) for ESP8266_Connect
    lab6.o(i.ConnectWifi) refers to os.o(i.OS_AddThread) for OS_AddThread
    lab6.o(i.ConnectWifi) refers to lab6.o(i.FetchWeather) for FetchWeather
    lab6.o(i.ConnectWifi) refers to lab6.o(.data) for NumCreated
    lab6.o(i.FetchWeather) refers to st7735.o(i.ST7735_DrawString) for ST7735_DrawString
    lab6.o(i.FetchWeather) refers to esp8266.o(i.ESP8266_GetStatus) for ESP8266_GetStatus
    lab6.o(i.FetchWeather) refers to esp8266.o(i.ESP8266_MakeTCPConnection) for ESP8266_MakeTCPConnection
    lab6.o(i.FetchWeather) refers to os.o(i.OS_Kill) for OS_Kill
    lab6.o(i.FetchWeather) refers to esp8266.o(i.ESP8266_Send) for ESP8266_Send
    lab6.o(i.FetchWeather) refers to esp8266.o(i.ESP8266_CloseTCPConnection) for ESP8266_CloseTCPConnection
    lab6.o(i.FetchWeather) refers to esp8266.o(i.ESP8266_Receive) for ESP8266_Receive
    lab6.o(i.FetchWeather) refers to strncmp.o(.text) for strncmp
    lab6.o(i.FetchWeather) refers to atol.o(.text) for atol
    lab6.o(i.FetchWeather) refers to strlen.o(.text) for strlen
    lab6.o(i.FetchWeather) refers to heap.o(i.Heap_Malloc) for Heap_Malloc
    lab6.o(i.FetchWeather) refers to strstr.o(.text) for strstr
    lab6.o(i.FetchWeather) refers to st7735.o(i.ST7735_Message) for ST7735_Message
    lab6.o(i.FetchWeather) refers to strchr.o(.text) for strchr
    lab6.o(i.FetchWeather) refers to heap.o(i.Heap_Free) for Heap_Free
    lab6.o(i.FetchWeather) refers to lab6.o(.data) for Running
    lab6.o(i.FetchWeather) refers to lab6.o(.constdata) for Fetch
    lab6.o(i.FetchWeather) refers to lab6.o(.bss) for Response
    lab6.o(i.HTTP_ServePage) refers to memcpya.o(.text) for __aeabi_memcpy4
    lab6.o(i.HTTP_ServePage) refers to strlen.o(.text) for strlen
    lab6.o(i.HTTP_ServePage) refers to printf1.o(i.__0sprintf$1) for __2sprintf
    lab6.o(i.HTTP_ServePage) refers to esp8266.o(i.ESP8266_SendBuffered) for ESP8266_SendBuffered
    lab6.o(i.HTTP_ServePage) refers to esp8266.o(i.ESP8266_SendBufferedStatus) for ESP8266_SendBufferedStatus
    lab6.o(i.HTTP_ServePage) refers to lab6.o(.conststring) for .conststring
    lab6.o(i.Idle) refers to startup.o(.text) for WaitForInterrupt
    lab6.o(i.Idle) refers to lab6.o(.data) for IdleCount
    lab6.o(i.Init) refers to efile.o(i.eFile_Init) for eFile_Init
    lab6.o(i.Init) refers to printf1.o(i.__0printf$1) for __2printf
    lab6.o(i.Init) refers to efile.o(i.eFile_Mount) for eFile_Mount
    lab6.o(i.Init) refers to os.o(i.OS_Kill) for OS_Kill
    lab6.o(i.SW1Push1) refers to os.o(i.OS_MsTime) for OS_MsTime
    lab6.o(i.SW1Push1) refers to os.o(i.OS_AddThread) for OS_AddThread
    lab6.o(i.SW1Push1) refers to os.o(i.OS_ClearMsTime) for OS_ClearMsTime
    lab6.o(i.SW1Push1) refers to lab6.o(i.ButtonWork1) for ButtonWork1
    lab6.o(i.SW1Push1) refers to lab6.o(.data) for NumCreated
    lab6.o(i.SW1Push2) refers to os.o(i.OS_AddThread) for OS_AddThread
    lab6.o(i.SW1Push2) refers to lab6.o(.data) for Running
    lab6.o(i.SW1Push2) refers to lab6.o(i.FetchWeather) for FetchWeather
    lab6.o(i.ServeHTTPRequest) refers to st7735.o(i.ST7735_DrawString) for ST7735_DrawString
    lab6.o(i.ServeHTTPRequest) refers to esp8266.o(i.ESP8266_Receive) for ESP8266_Receive
    lab6.o(i.ServeHTTPRequest) refers to esp8266.o(i.ESP8266_CloseTCPConnection) for ESP8266_CloseTCPConnection
    lab6.o(i.ServeHTTPRequest) refers to os.o(i.OS_Signal) for OS_Signal
    lab6.o(i.ServeHTTPRequest) refers to os.o(i.OS_Kill) for OS_Kill
    lab6.o(i.ServeHTTPRequest) refers to strncmp.o(.text) for strncmp
    lab6.o(i.ServeHTTPRequest) refers to strstr.o(.text) for strstr
    lab6.o(i.ServeHTTPRequest) refers to lab6.o(i.HTTP_ServePage) for HTTP_ServePage
    lab6.o(i.ServeHTTPRequest) refers to strchr.o(.text) for strchr
    lab6.o(i.ServeHTTPRequest) refers to lab6.o(.bss) for Response
    lab6.o(i.ServeHTTPRequest) refers to lab6.o(.data) for WebServerSema
    lab6.o(i.ServeHTTPRequest) refers to lab6.o(.constdata) for statusBody
    lab6.o(i.Testmain0) refers to os.o(i.OS_Init) for OS_Init
    lab6.o(i.Testmain0) refers to lab6.o(i.PortD_Init) for PortD_Init
    lab6.o(i.Testmain0) refers to os.o(i.OS_AddThread) for OS_AddThread
    lab6.o(i.Testmain0) refers to os.o(i.OS_Launch) for OS_Launch
    lab6.o(i.Testmain0) refers to lab6.o(.data) for NumCreated
    lab6.o(i.Testmain0) refers to lab6.o(i.Thread1) for Thread1
    lab6.o(i.Testmain0) refers to lab6.o(i.Thread2) for Thread2
    lab6.o(i.Testmain0) refers to lab6.o(i.Thread3) for Thread3
    lab6.o(i.Testmain1) refers to os.o(i.OS_Init) for OS_Init
    lab6.o(i.Testmain1) refers to lab6.o(i.PortD_Init) for PortD_Init
    lab6.o(i.Testmain1) refers to can0.o(i.CAN0_Open) for CAN0_Open
    lab6.o(i.Testmain1) refers to os.o(i.OS_AddPeriodicThread) for OS_AddPeriodicThread
    lab6.o(i.Testmain1) refers to os.o(i.OS_AddSW1Task) for OS_AddSW1Task
    lab6.o(i.Testmain1) refers to os.o(i.OS_AddThread) for OS_AddThread
    lab6.o(i.Testmain1) refers to os.o(i.OS_Launch) for OS_Launch
    lab6.o(i.Testmain1) refers to lab6.o(i.CANSendTask) for CANSendTask
    lab6.o(i.Testmain1) refers to lab6.o(i.SW1Push1) for SW1Push1
    lab6.o(i.Testmain1) refers to lab6.o(.data) for NumCreated
    lab6.o(i.Testmain1) refers to lab6.o(i.Idle) for Idle
    lab6.o(i.Testmain1) refers to lab6.o(i.CANReceiveTask) for CANReceiveTask
    lab6.o(i.Testmain2) refers to os.o(i.OS_Init) for OS_Init
    lab6.o(i.Testmain2) refers to lab6.o(i.PortD_Init) for PortD_Init
    lab6.o(i.Testmain2) refers to heap.o(i.Heap_Init) for Heap_Init
    lab6.o(i.Testmain2) refers to os.o(i.OS_AddSW1Task) for OS_AddSW1Task
    lab6.o(i.Testmain2) refers to os.o(i.OS_AddThread) for OS_AddThread
    lab6.o(i.Testmain2) refers to os.o(i.OS_Launch) for OS_Launch
    lab6.o(i.Testmain2) refers to lab6.o(.data) for Running
    lab6.o(i.Testmain2) refers to lab6.o(i.SW1Push2) for SW1Push2
    lab6.o(i.Testmain2) refers to lab6.o(i.Idle) for Idle
    lab6.o(i.Testmain2) refers to lab6.o(i.ConnectWifi) for ConnectWifi
    lab6.o(i.Testmain3) refers to os.o(i.OS_Init) for OS_Init
    lab6.o(i.Testmain3) refers to lab6.o(i.PortD_Init) for PortD_Init
    lab6.o(i.Testmain3) refers to os.o(i.OS_InitSemaphore) for OS_InitSemaphore
    lab6.o(i.Testmain3) refers to os.o(i.OS_AddThread) for OS_AddThread
    lab6.o(i.Testmain3) refers to os.o(i.OS_Launch) for OS_Launch
    lab6.o(i.Testmain3) refers to lab6.o(.data) for WebServerSema
    lab6.o(i.Testmain3) refers to lab6.o(i.Idle) for Idle
    lab6.o(i.Testmain3) refers to lab6.o(i.WebServer) for WebServer
    lab6.o(i.Thread1) refers to lab6.o(.data) for Count1
    lab6.o(i.Thread2) refers to lab6.o(.data) for Count2
    lab6.o(i.Thread3) refers to lab6.o(.data) for Count3
    lab6.o(i.WebServer) refers to esp8266.o(i.ESP8266_Init) for ESP8266_Init
    lab6.o(i.WebServer) refers to st7735.o(i.ST7735_DrawString) for ST7735_DrawString
    lab6.o(i.WebServer) refers to os.o(i.OS_Kill) for OS_Kill
    lab6.o(i.WebServer) refers to esp8266.o(i.ESP8266_GetVersionNumber) for ESP8266_GetVersionNumber
    lab6.o(i.WebServer) refers to esp8266.o(i.ESP8266_Connect) for ESP8266_Connect
    lab6.o(i.WebServer) refers to esp8266.o(i.ESP8266_StartServer) for ESP8266_StartServer
    lab6.o(i.WebServer) refers to esp8266.o(i.ESP8266_WaitForConnection) for ESP8266_WaitForConnection
    lab6.o(i.WebServer) refers to os.o(i.OS_AddThread) for OS_AddThread
    lab6.o(i.WebServer) refers to os.o(i.OS_Wait) for OS_Wait
    lab6.o(i.WebServer) refers to lab6.o(i.ServeHTTPRequest) for ServeHTTPRequest
    lab6.o(i.WebServer) refers to lab6.o(.data) for NumCreated
    lab6.o(i.main) refers to lab6.o(i.realmain) for realmain
    lab6.o(i.realmain) refers to os.o(i.OS_Init) for OS_Init
    lab6.o(i.realmain) refers to lab6.o(i.PortD_Init) for PortD_Init
    lab6.o(i.realmain) refers to heap.o(i.Heap_Init) for Heap_Init
    lab6.o(i.realmain) refers to adc.o(i.ADC_Init) for ADC_Init
    lab6.o(i.realmain) refers to can0.o(i.CAN0_Open) for CAN0_Open
    lab6.o(i.realmain) refers to os.o(i.OS_AddPeriodicThread) for OS_AddPeriodicThread
    lab6.o(i.realmain) refers to os.o(i.OS_AddThread) for OS_AddThread
    lab6.o(i.realmain) refers to os.o(i.OS_Launch) for OS_Launch
    lab6.o(i.realmain) refers to os.o(.data) for MaxJitter
    lab6.o(i.realmain) refers to edisk.o(i.disk_timerproc) for disk_timerproc
    lab6.o(i.realmain) refers to lab6.o(.data) for NumCreated
    lab6.o(i.realmain) refers to lab6.o(i.Init) for Init
    lab6.o(i.realmain) refers to interpreter.o(i.Interpreter) for Interpreter
    lab6.o(i.realmain) refers to lab6.o(i.Idle) for Idle
    lab6.o(i.realmain) refers to lab6.o(i.Buck_Fun) for Buck_Fun
    os.o(i.GPIOPortF_Handler) refers to os.o(.data) for SW_task
    os.o(i.OSTtask) refers to os.o(.data) for OStime_round
    os.o(i.OS_AddPeriodicThread) refers to os.o(.data) for PeriodicTask4
    os.o(i.OS_AddSW1Task) refers to os.o(.data) for SW_task
    os.o(i.OS_AddThread) refers to startup.o(.text) for StartCritical
    os.o(i.OS_AddThread) refers to lab6.o(.data) for NumCreated
    os.o(i.OS_AddThread) refers to os.o(.bss) for STACK_pool
    os.o(i.OS_ClearMsTime) refers to os.o(.data) for OStime_round
    os.o(i.OS_EndRedirectToFile) refers to efile.o(i.eFile_WClose) for eFile_WClose
    os.o(i.OS_EndRedirectToFile) refers to os.o(.data) for StreamToDevice
    os.o(i.OS_Fifo_Get) refers to os.o(i.OS_Wait) for OS_Wait
    os.o(i.OS_Fifo_Get) refers to startup.o(.text) for DisableInterrupts
    os.o(i.OS_Fifo_Get) refers to os.o(i.OS_Signal) for OS_Signal
    os.o(i.OS_Fifo_Get) refers to os.o(.bss) for OS_FIFO
    os.o(i.OS_Fifo_Init) refers to os.o(.bss) for OS_FIFO
    os.o(i.OS_Fifo_Put) refers to os.o(i.OS_Wait) for OS_Wait
    os.o(i.OS_Fifo_Put) refers to startup.o(.text) for DisableInterrupts
    os.o(i.OS_Fifo_Put) refers to os.o(i.OS_Signal) for OS_Signal
    os.o(i.OS_Fifo_Put) refers to os.o(.bss) for OS_FIFO
    os.o(i.OS_Init) refers to pll.o(i.PLL_Init) for PLL_Init
    os.o(i.OS_Init) refers to uart0int.o(i.UART_Init) for UART_Init
    os.o(i.OS_Init) refers to st7735.o(i.ST7735_InitR) for ST7735_InitR
    os.o(i.OS_Init) refers to st7735.o(i.ST7735_Message) for ST7735_Message
    os.o(i.OS_Init) refers to wtimer0a.o(i.WideTimer0A_Init) for WideTimer0A_Init
    os.o(i.OS_Init) refers to timer5a.o(i.Timer5A_Init) for Timer5A_Init
    os.o(i.OS_Init) refers to os.o(i.OS_InitSemaphore) for OS_InitSemaphore
    os.o(i.OS_Init) refers to os.o(.data) for LCDFree
    os.o(i.OS_Init) refers to os.o(i.WDTimer0A_task) for WDTimer0A_task
    os.o(i.OS_Init) refers to os.o(i.OSTtask) for OSTtask
    os.o(i.OS_Kill) refers to startup.o(.text) for DisableInterrupts
    os.o(i.OS_Kill) refers to os.o(.data) for RunPt
    os.o(i.OS_Kill) refers to lab6.o(.data) for NumCreated
    os.o(i.OS_Launch) refers to os.o(i.SysTick_Init) for SysTick_Init
    os.o(i.OS_Launch) refers to osasm.o(.text) for StartOS
    os.o(i.OS_Launch) refers to lab6.o(.data) for NumCreated
    os.o(i.OS_Launch) refers to os.o(.bss) for TCB_pool
    os.o(i.OS_Launch) refers to os.o(.data) for RunPt
    os.o(i.OS_MailBox_Init) refers to os.o(.bss) for OS_MailBox
    os.o(i.OS_MailBox_Recv) refers to os.o(i.OS_bWait) for OS_bWait
    os.o(i.OS_MailBox_Recv) refers to os.o(i.OS_bSignal) for OS_bSignal
    os.o(i.OS_MailBox_Recv) refers to os.o(.bss) for OS_MailBox
    os.o(i.OS_MailBox_Send) refers to os.o(i.OS_bWait) for OS_bWait
    os.o(i.OS_MailBox_Send) refers to os.o(i.OS_bSignal) for OS_bSignal
    os.o(i.OS_MailBox_Send) refers to os.o(.bss) for OS_MailBox
    os.o(i.OS_MsTime) refers to os.o(.data) for OStime_round
    os.o(i.OS_RedirectToFile) refers to efile.o(i.eFile_Create) for eFile_Create
    os.o(i.OS_RedirectToFile) refers to efile.o(i.eFile_WOpen) for eFile_WOpen
    os.o(i.OS_RedirectToFile) refers to os.o(.data) for StreamToDevice
    os.o(i.OS_RedirectToUART) refers to os.o(.data) for StreamToDevice
    os.o(i.OS_Signal) refers to startup.o(.text) for StartCritical
    os.o(i.OS_Sleep) refers to startup.o(.text) for StartCritical
    os.o(i.OS_Sleep) refers to os.o(.data) for RunPt
    os.o(i.OS_Suspend) refers to osasm.o(.text) for ContextSwitch
    os.o(i.OS_Time) refers to os.o(.data) for OStime_Task1
    os.o(i.OS_Wait) refers to startup.o(.text) for DisableInterrupts
    os.o(i.OS_bWait) refers to startup.o(.text) for DisableInterrupts
    os.o(i.SysTick_Handler) refers to os.o(.data) for RunPt
    os.o(i.Timer4A_Handler) refers to os.o(.data) for PeriodicTask4
    os.o(i.WDTimer0A_task) refers to startup.o(.text) for StartCritical
    os.o(i.WDTimer0A_task) refers to lab6.o(.data) for NumCreated
    os.o(i.WDTimer0A_task) refers to os.o(.bss) for TCB_pool
    os.o(i.fgetc) refers to uart0int.o(i.UART_InChar) for UART_InChar
    os.o(i.fgetc) refers to uart0int.o(i.UART_OutChar) for UART_OutChar
    os.o(i.fputc) refers to efile.o(i.eFile_Write) for eFile_Write
    os.o(i.fputc) refers to os.o(i.OS_EndRedirectToFile) for OS_EndRedirectToFile
    os.o(i.fputc) refers to uart0int.o(i.UART_OutChar) for UART_OutChar
    os.o(i.fputc) refers to os.o(.data) for StreamToDevice
    st7735.o(i.ST7735_DrawBitmap) refers to st7735.o(i.setAddrWindow) for setAddrWindow
    st7735.o(i.ST7735_DrawBitmap) refers to st7735.o(i.writedata) for writedata
    st7735.o(i.ST7735_DrawBitmap) refers to st7735.o(.data) for _width
    st7735.o(i.ST7735_DrawChar) refers to st7735.o(i.setAddrWindow) for setAddrWindow
    st7735.o(i.ST7735_DrawChar) refers to st7735.o(i.pushColor) for pushColor
    st7735.o(i.ST7735_DrawChar) refers to st7735.o(.data) for _width
    st7735.o(i.ST7735_DrawChar) refers to st7735.o(.constdata) for Font
    st7735.o(i.ST7735_DrawCharS) refers to st7735.o(i.ST7735_DrawPixel) for ST7735_DrawPixel
    st7735.o(i.ST7735_DrawCharS) refers to st7735.o(i.ST7735_FillRect) for ST7735_FillRect
    st7735.o(i.ST7735_DrawCharS) refers to st7735.o(.data) for _width
    st7735.o(i.ST7735_DrawCharS) refers to st7735.o(.constdata) for Font
    st7735.o(i.ST7735_DrawCircle) refers to st7735.o(i.setAddrWindow) for setAddrWindow
    st7735.o(i.ST7735_DrawCircle) refers to st7735.o(i.writedata) for writedata
    st7735.o(i.ST7735_DrawCircle) refers to st7735.o(.data) for _width
    st7735.o(i.ST7735_DrawCircle) refers to st7735.o(.constdata) for circle
    st7735.o(i.ST7735_DrawFastHLine) refers to st7735.o(i.setAddrWindow) for setAddrWindow
    st7735.o(i.ST7735_DrawFastHLine) refers to st7735.o(i.writedata) for writedata
    st7735.o(i.ST7735_DrawFastHLine) refers to st7735.o(.data) for _width
    st7735.o(i.ST7735_DrawFastVLine) refers to st7735.o(i.setAddrWindow) for setAddrWindow
    st7735.o(i.ST7735_DrawFastVLine) refers to st7735.o(i.writedata) for writedata
    st7735.o(i.ST7735_DrawFastVLine) refers to st7735.o(.data) for _width
    st7735.o(i.ST7735_DrawPixel) refers to st7735.o(i.setAddrWindow) for setAddrWindow
    st7735.o(i.ST7735_DrawPixel) refers to st7735.o(i.pushColor) for pushColor
    st7735.o(i.ST7735_DrawPixel) refers to st7735.o(.data) for _width
    st7735.o(i.ST7735_DrawSmallCircle) refers to st7735.o(i.setAddrWindow) for setAddrWindow
    st7735.o(i.ST7735_DrawSmallCircle) refers to st7735.o(i.writedata) for writedata
    st7735.o(i.ST7735_DrawSmallCircle) refers to st7735.o(.data) for _width
    st7735.o(i.ST7735_DrawSmallCircle) refers to st7735.o(.constdata) for smallCircle
    st7735.o(i.ST7735_DrawString) refers to st7735.o(i.ST7735_DrawCharS) for ST7735_DrawCharS
    st7735.o(i.ST7735_FillRect) refers to st7735.o(i.setAddrWindow) for setAddrWindow
    st7735.o(i.ST7735_FillRect) refers to st7735.o(i.writedata) for writedata
    st7735.o(i.ST7735_FillRect) refers to st7735.o(.data) for _width
    st7735.o(i.ST7735_FillScreen) refers to st7735.o(i.ST7735_FillRect) for ST7735_FillRect
    st7735.o(i.ST7735_FillScreen) refers to st7735.o(.data) for _height
    st7735.o(i.ST7735_InitB) refers to st7735.o(i.commonInit) for commonInit
    st7735.o(i.ST7735_InitB) refers to st7735.o(i.ST7735_SetCursor) for ST7735_SetCursor
    st7735.o(i.ST7735_InitB) refers to st7735.o(i.ST7735_FillScreen) for ST7735_FillScreen
    st7735.o(i.ST7735_InitB) refers to os.o(i.OS_InitSemaphore) for OS_InitSemaphore
    st7735.o(i.ST7735_InitB) refers to st7735.o(.constdata) for Bcmd
    st7735.o(i.ST7735_InitB) refers to st7735.o(.data) for StTextColor
    st7735.o(i.ST7735_InitB) refers to os.o(.data) for LCDFree
    st7735.o(i.ST7735_InitR) refers to st7735.o(i.commonInit) for commonInit
    st7735.o(i.ST7735_InitR) refers to st7735.o(i.commandList) for commandList
    st7735.o(i.ST7735_InitR) refers to st7735.o(i.writecommand) for writecommand
    st7735.o(i.ST7735_InitR) refers to st7735.o(i.writedata) for writedata
    st7735.o(i.ST7735_InitR) refers to st7735.o(i.ST7735_SetCursor) for ST7735_SetCursor
    st7735.o(i.ST7735_InitR) refers to st7735.o(i.ST7735_FillScreen) for ST7735_FillScreen
    st7735.o(i.ST7735_InitR) refers to os.o(i.OS_InitSemaphore) for OS_InitSemaphore
    st7735.o(i.ST7735_InitR) refers to st7735.o(.constdata) for Rcmd1
    st7735.o(i.ST7735_InitR) refers to st7735.o(.data) for ColStart
    st7735.o(i.ST7735_InitR) refers to os.o(.data) for LCDFree
    st7735.o(i.ST7735_InvertDisplay) refers to st7735.o(i.writecommand) for writecommand
    st7735.o(i.ST7735_Message) refers to os.o(i.OS_Wait) for OS_Wait
    st7735.o(i.ST7735_Message) refers to st7735.o(i.ST7735_Color565) for ST7735_Color565
    st7735.o(i.ST7735_Message) refers to st7735.o(i.ST7735_DrawString) for ST7735_DrawString
    st7735.o(i.ST7735_Message) refers to strlen.o(.text) for strlen
    st7735.o(i.ST7735_Message) refers to st7735.o(i.ST7735_SetCursor) for ST7735_SetCursor
    st7735.o(i.ST7735_Message) refers to st7735.o(i.ST7735_OutChar) for ST7735_OutChar
    st7735.o(i.ST7735_Message) refers to st7735.o(i.ST7735_OutUDec) for ST7735_OutUDec
    st7735.o(i.ST7735_Message) refers to os.o(i.OS_Signal) for OS_Signal
    st7735.o(i.ST7735_Message) refers to os.o(.data) for LCDFree
    st7735.o(i.ST7735_OutChar) refers to st7735.o(i.ST7735_DrawString) for ST7735_DrawString
    st7735.o(i.ST7735_OutChar) refers to st7735.o(i.ST7735_DrawCharS) for ST7735_DrawCharS
    st7735.o(i.ST7735_OutChar) refers to st7735.o(.data) for StY
    st7735.o(i.ST7735_OutString) refers to st7735.o(i.ST7735_OutChar) for ST7735_OutChar
    st7735.o(i.ST7735_OutUDec) refers to st7735.o(i.fillmessage) for fillmessage
    st7735.o(i.ST7735_OutUDec) refers to st7735.o(i.ST7735_DrawString) for ST7735_DrawString
    st7735.o(i.ST7735_OutUDec) refers to st7735.o(i.ST7735_DrawCharS) for ST7735_DrawCharS
    st7735.o(i.ST7735_OutUDec) refers to st7735.o(.data) for Messageindex
    st7735.o(i.ST7735_OutUDec) refers to st7735.o(.bss) for Message
    st7735.o(i.ST7735_OutUDec2) refers to st7735.o(i.fillmessage) for fillmessage
    st7735.o(i.ST7735_OutUDec2) refers to st7735.o(i.ST7735_DrawString) for ST7735_DrawString
    st7735.o(i.ST7735_OutUDec2) refers to st7735.o(.data) for Messageindex
    st7735.o(i.ST7735_OutUDec2) refers to st7735.o(.bss) for Message
    st7735.o(i.ST7735_OutUDec4) refers to st7735.o(i.fillmessage4) for fillmessage4
    st7735.o(i.ST7735_OutUDec4) refers to st7735.o(i.ST7735_DrawString) for ST7735_DrawString
    st7735.o(i.ST7735_OutUDec4) refers to st7735.o(i.ST7735_DrawCharS) for ST7735_DrawCharS
    st7735.o(i.ST7735_OutUDec4) refers to st7735.o(.data) for Messageindex
    st7735.o(i.ST7735_OutUDec4) refers to st7735.o(.bss) for Message
    st7735.o(i.ST7735_OutUDec5) refers to st7735.o(i.fillmessage5) for fillmessage5
    st7735.o(i.ST7735_OutUDec5) refers to st7735.o(i.ST7735_DrawString) for ST7735_DrawString
    st7735.o(i.ST7735_OutUDec5) refers to st7735.o(i.ST7735_DrawCharS) for ST7735_DrawCharS
    st7735.o(i.ST7735_OutUDec5) refers to st7735.o(.data) for Messageindex
    st7735.o(i.ST7735_OutUDec5) refers to st7735.o(.bss) for Message
    st7735.o(i.ST7735_PlotBar) refers to st7735.o(i.ST7735_DrawFastVLine) for ST7735_DrawFastVLine
    st7735.o(i.ST7735_PlotBar) refers to st7735.o(.data) for Ymin
    st7735.o(i.ST7735_PlotClear) refers to st7735.o(i.ST7735_Color565) for ST7735_Color565
    st7735.o(i.ST7735_PlotClear) refers to st7735.o(i.ST7735_FillRect) for ST7735_FillRect
    st7735.o(i.ST7735_PlotClear) refers to st7735.o(.data) for Ymax
    st7735.o(i.ST7735_PlotLine) refers to st7735.o(i.ST7735_DrawPixel) for ST7735_DrawPixel
    st7735.o(i.ST7735_PlotLine) refers to st7735.o(.data) for Ymin
    st7735.o(i.ST7735_PlotNext) refers to st7735.o(.data) for X
    st7735.o(i.ST7735_PlotNextErase) refers to st7735.o(i.ST7735_Color565) for ST7735_Color565
    st7735.o(i.ST7735_PlotNextErase) refers to st7735.o(i.ST7735_DrawFastVLine) for ST7735_DrawFastVLine
    st7735.o(i.ST7735_PlotNextErase) refers to st7735.o(.data) for X
    st7735.o(i.ST7735_PlotPoint) refers to st7735.o(i.ST7735_DrawPixel) for ST7735_DrawPixel
    st7735.o(i.ST7735_PlotPoint) refers to st7735.o(.data) for Ymin
    st7735.o(i.ST7735_PlotPoints) refers to st7735.o(i.ST7735_DrawPixel) for ST7735_DrawPixel
    st7735.o(i.ST7735_PlotPoints) refers to st7735.o(.data) for Ymin
    st7735.o(i.ST7735_PlotdBfs) refers to st7735.o(i.ST7735_DrawFastVLine) for ST7735_DrawFastVLine
    st7735.o(i.ST7735_PlotdBfs) refers to st7735.o(.constdata) for dBfs
    st7735.o(i.ST7735_PlotdBfs) refers to st7735.o(.data) for X
    st7735.o(i.ST7735_SetCursor) refers to st7735.o(.data) for StX
    st7735.o(i.ST7735_SetRotation) refers to st7735.o(i.writecommand) for writecommand
    st7735.o(i.ST7735_SetRotation) refers to st7735.o(i.writedata) for writedata
    st7735.o(i.ST7735_SetRotation) refers to st7735.o(.data) for Rotation
    st7735.o(i.ST7735_SetTextColor) refers to st7735.o(.data) for StTextColor
    st7735.o(i.commandList) refers to st7735.o(i.writecommand) for writecommand
    st7735.o(i.commandList) refers to st7735.o(i.writedata) for writedata
    st7735.o(i.commandList) refers to st7735.o(i.Delay1ms) for Delay1ms
    st7735.o(i.commonInit) refers to edisk.o(i.CS_Init) for CS_Init
    st7735.o(i.commonInit) refers to st7735.o(i.Delay1ms) for Delay1ms
    st7735.o(i.commonInit) refers to st7735.o(i.commandList) for commandList
    st7735.o(i.commonInit) refers to st7735.o(.data) for RowStart
    st7735.o(i.fillmessage) refers to st7735.o(.bss) for Message
    st7735.o(i.fillmessage) refers to st7735.o(.data) for Messageindex
    st7735.o(i.fillmessage4) refers to st7735.o(i.fillmessage) for fillmessage
    st7735.o(i.fillmessage4) refers to st7735.o(.data) for Messageindex
    st7735.o(i.fillmessage4) refers to st7735.o(.bss) for Message
    st7735.o(i.fillmessage5) refers to st7735.o(i.fillmessage) for fillmessage
    st7735.o(i.fillmessage5) refers to st7735.o(.data) for Messageindex
    st7735.o(i.fillmessage5) refers to st7735.o(.bss) for Message
    st7735.o(i.pushColor) refers to st7735.o(i.writedata) for writedata
    st7735.o(i.setAddrWindow) refers to st7735.o(i.writecommand) for writecommand
    st7735.o(i.setAddrWindow) refers to st7735.o(i.writedata) for writedata
    st7735.o(i.setAddrWindow) refers to st7735.o(.data) for ColStart
    interpreter.o(i.Client) refers to uart0int.o(i.UART_OutString) for UART_OutString
    interpreter.o(i.Client) refers to esp8266.o(i.ESP8266_Init) for ESP8266_Init
    interpreter.o(i.Client) refers to st7735.o(i.ST7735_DrawString) for ST7735_DrawString
    interpreter.o(i.Client) refers to os.o(i.OS_Kill) for OS_Kill
    interpreter.o(i.Client) refers to esp8266.o(i.ESP8266_GetVersionNumber) for ESP8266_GetVersionNumber
    interpreter.o(i.Client) refers to esp8266.o(i.ESP8266_Connect) for ESP8266_Connect
    interpreter.o(i.Client) refers to esp8266.o(i.ESP8266_MakeTCPConnection) for ESP8266_MakeTCPConnection
    interpreter.o(i.Client) refers to uart0int.o(i.UART_InString) for UART_InString
    interpreter.o(i.Client) refers to strtok.o(.text) for strtok
    interpreter.o(i.Client) refers to strcmp.o(.text) for strcmp
    interpreter.o(i.Client) refers to interpreter.o(i.ClientSend) for ClientSend
    interpreter.o(i.Client) refers to strcpy.o(.text) for strcpy
    interpreter.o(i.Client) refers to strcat.o(.text) for strcat
    interpreter.o(i.Client) refers to esp8266.o(i.ESP8266_CloseTCPConnection) for ESP8266_CloseTCPConnection
    interpreter.o(i.Client) refers to interpreter.o(.data) for max_length
    interpreter.o(i.Client) refers to interpreter.o(.bss) for Client_input_temp
    interpreter.o(i.Client) refers to os.o(i.OS_AddThread) for OS_AddThread
    interpreter.o(i.Client) refers to lab6.o(.data) for Error_Type
    interpreter.o(i.Client) refers to lab6.o(i.Buck_Fun) for Buck_Fun
    interpreter.o(i.ClientSend) refers to esp8266.o(i.ESP8266_Send) for ESP8266_Send
    interpreter.o(i.ClientSend) refers to st7735.o(i.ST7735_DrawString) for ST7735_DrawString
    interpreter.o(i.ClientSend) refers to esp8266.o(i.ESP8266_CloseTCPConnection) for ESP8266_CloseTCPConnection
    interpreter.o(i.ClientSend) refers to os.o(i.OS_Kill) for OS_Kill
    interpreter.o(i.ClientSend) refers to esp8266.o(i.ESP8266_Receive) for ESP8266_Receive
    interpreter.o(i.ClientSend) refers to interpreter.o(.bss) for ClientTX
    interpreter.o(i.Interpreter) refers to uart0int.o(i.UART_InString) for UART_InString
    interpreter.o(i.Interpreter) refers to strtok.o(.text) for strtok
    interpreter.o(i.Interpreter) refers to strcmp.o(.text) for strcmp
    interpreter.o(i.Interpreter) refers to os.o(i.OS_AddThread) for OS_AddThread
    interpreter.o(i.Interpreter) refers to uart0int.o(i.UART_OutString) for UART_OutString
    interpreter.o(i.Interpreter) refers to adc.o(i.ADC_In) for ADC_In
    interpreter.o(i.Interpreter) refers to uart0int.o(i.UART_OutUDec) for UART_OutUDec
    interpreter.o(i.Interpreter) refers to os.o(i.OS_MsTime) for OS_MsTime
    interpreter.o(i.Interpreter) refers to os.o(i.OS_ClearMsTime) for OS_ClearMsTime
    interpreter.o(i.Interpreter) refers to strtol.o(.text) for strtol
    interpreter.o(i.Interpreter) refers to st7735.o(i.ST7735_Message) for ST7735_Message
    interpreter.o(i.Interpreter) refers to interpreter.o(i.Jitter) for Jitter
    interpreter.o(i.Interpreter) refers to efile.o(i.eFile_Format) for eFile_Format
    interpreter.o(i.Interpreter) refers to efile.o(i.eFile_Mount) for eFile_Mount
    interpreter.o(i.Interpreter) refers to efile.o(i.eFile_Create) for eFile_Create
    interpreter.o(i.Interpreter) refers to efile.o(i.eFile_Delete) for eFile_Delete
    interpreter.o(i.Interpreter) refers to efile.o(i.eFile_Unmount) for eFile_Unmount
    interpreter.o(i.Interpreter) refers to efile.o(i.eFile_WOpen) for eFile_WOpen
    interpreter.o(i.Interpreter) refers to efile.o(i.eFile_Write) for eFile_Write
    interpreter.o(i.Interpreter) refers to efile.o(i.eFile_WClose) for eFile_WClose
    interpreter.o(i.Interpreter) refers to efile.o(i.eFile_ROpen) for eFile_ROpen
    interpreter.o(i.Interpreter) refers to efile.o(i.eFile_ReadNext) for eFile_ReadNext
    interpreter.o(i.Interpreter) refers to uart0int.o(i.UART_OutChar) for UART_OutChar
    interpreter.o(i.Interpreter) refers to efile.o(i.eFile_RClose) for eFile_RClose
    interpreter.o(i.Interpreter) refers to loader.o(i.exec_elf) for exec_elf
    interpreter.o(i.Interpreter) refers to heap.o(i.Heap_Init) for Heap_Init
    interpreter.o(i.Interpreter) refers to interpreter.o(.data) for max_length
    interpreter.o(i.Interpreter) refers to interpreter.o(.bss) for input_temp
    interpreter.o(i.Interpreter) refers to interpreter.o(i.Client) for Client
    interpreter.o(i.Interpreter) refers to lab6.o(.data) for NumCreated
    interpreter.o(i.Interpreter) refers to os.o(.bss) for JitterHistogram
    interpreter.o(i.Interpreter) refers to os.o(.data) for MaxJitter
    interpreter.o(i.Interpreter) refers to interpreter.o(.constdata) for .constdata
    interpreter.o(i.Interpreter) refers to printf1.o(i.__0printf$1) for __2printf
    interpreter.o(i.Interpreter) refers to lab6.o(i.Buck_Fun) for Buck_Fun
    interpreter.o(i.Jitter) refers to st7735.o(i.ST7735_Message) for ST7735_Message
    interpreter.o(i.Jitter) refers to uart0int.o(i.UART_OutString) for UART_OutString
    interpreter.o(i.Jitter) refers to uart0int.o(i.UART_OutUDec) for UART_OutUDec
    interpreter.o(.constdata) refers to interpreter.o(.conststring) for .conststring
    interpreter.o(.constdata) refers to st7735.o(i.ST7735_Message) for ST7735_Message
    interpreter.o(.data) refers to interpreter.o(.bss) for input_temp
    uart0int.o(i.Fixed_Fix2Str) refers to strcpy.o(.text) for strcpy
    uart0int.o(i.RxFifo_Get) refers to uart0int.o(.data) for RxPutI
    uart0int.o(i.RxFifo_Get) refers to uart0int.o(.bss) for RxFifo
    uart0int.o(i.RxFifo_Init) refers to uart0int.o(.data) for RxGetI
    uart0int.o(i.RxFifo_Put) refers to uart0int.o(.data) for RxPutI
    uart0int.o(i.RxFifo_Put) refers to uart0int.o(.bss) for RxFifo
    uart0int.o(i.RxFifo_Size) refers to uart0int.o(.data) for RxPutI
    uart0int.o(i.TxFifo_Get) refers to uart0int.o(.data) for TxPutI
    uart0int.o(i.TxFifo_Get) refers to uart0int.o(.bss) for TxFifo
    uart0int.o(i.TxFifo_Init) refers to uart0int.o(.data) for TxGetI
    uart0int.o(i.TxFifo_Put) refers to uart0int.o(.data) for TxPutI
    uart0int.o(i.TxFifo_Put) refers to uart0int.o(.bss) for TxFifo
    uart0int.o(i.TxFifo_Size) refers to uart0int.o(.data) for TxPutI
    uart0int.o(i.UART0_Handler) refers to uart0int.o(i.copySoftwareToHardware) for copySoftwareToHardware
    uart0int.o(i.UART0_Handler) refers to uart0int.o(i.TxFifo_Size) for TxFifo_Size
    uart0int.o(i.UART0_Handler) refers to uart0int.o(i.copyHardwareToSoftware) for copyHardwareToSoftware
    uart0int.o(i.UART_Fix2) refers to uart0int.o(i.Fixed_Fix2Str) for Fixed_Fix2Str
    uart0int.o(i.UART_Fix2) refers to uart0int.o(i.UART_OutString) for UART_OutString
    uart0int.o(i.UART_InChar) refers to os.o(i.OS_Wait) for OS_Wait
    uart0int.o(i.UART_InChar) refers to uart0int.o(i.RxFifo_Get) for RxFifo_Get
    uart0int.o(i.UART_InChar) refers to os.o(.data) for RxDataAvailable
    uart0int.o(i.UART_InCharNonBlock) refers to uart0int.o(i.RxFifo_Get) for RxFifo_Get
    uart0int.o(i.UART_InString) refers to uart0int.o(i.UART_InChar) for UART_InChar
    uart0int.o(i.UART_InString) refers to uart0int.o(i.UART_OutChar) for UART_OutChar
    uart0int.o(i.UART_InUDec) refers to uart0int.o(i.UART_InChar) for UART_InChar
    uart0int.o(i.UART_InUDec) refers to uart0int.o(i.UART_OutChar) for UART_OutChar
    uart0int.o(i.UART_InUHex) refers to uart0int.o(i.UART_InChar) for UART_InChar
    uart0int.o(i.UART_InUHex) refers to uart0int.o(i.UART_OutChar) for UART_OutChar
    uart0int.o(i.UART_Init) refers to uart0int.o(i.RxFifo_Init) for RxFifo_Init
    uart0int.o(i.UART_Init) refers to uart0int.o(i.TxFifo_Init) for TxFifo_Init
    uart0int.o(i.UART_OutChar) refers to os.o(i.OS_Wait) for OS_Wait
    uart0int.o(i.UART_OutChar) refers to uart0int.o(i.TxFifo_Put) for TxFifo_Put
    uart0int.o(i.UART_OutChar) refers to uart0int.o(i.copySoftwareToHardware) for copySoftwareToHardware
    uart0int.o(i.UART_OutChar) refers to os.o(.data) for TxRoomLeft
    uart0int.o(i.UART_OutCharNonBlock) refers to uart0int.o(i.TxFifo_Put) for TxFifo_Put
    uart0int.o(i.UART_OutCharNonBlock) refers to uart0int.o(i.copySoftwareToHardware) for copySoftwareToHardware
    uart0int.o(i.UART_OutSDec) refers to uart0int.o(i.UART_OutChar) for UART_OutChar
    uart0int.o(i.UART_OutSDec) refers to uart0int.o(i.UART_OutUDec) for UART_OutUDec
    uart0int.o(i.UART_OutString) refers to uart0int.o(i.UART_OutChar) for UART_OutChar
    uart0int.o(i.UART_OutUDec) refers to uart0int.o(i.UART_OutChar) for UART_OutChar
    uart0int.o(i.UART_OutUHex) refers to uart0int.o(i.UART_OutChar) for UART_OutChar
    uart0int.o(i.copyHardwareToSoftware) refers to uart0int.o(i.RxFifo_Put) for RxFifo_Put
    uart0int.o(i.copyHardwareToSoftware) refers to os.o(i.OS_Signal) for OS_Signal
    uart0int.o(i.copyHardwareToSoftware) refers to uart0int.o(i.RxFifo_Size) for RxFifo_Size
    uart0int.o(i.copyHardwareToSoftware) refers to os.o(.data) for RxDataAvailable
    uart0int.o(i.copySoftwareToHardware) refers to uart0int.o(i.TxFifo_Get) for TxFifo_Get
    uart0int.o(i.copySoftwareToHardware) refers to os.o(i.OS_Signal) for OS_Signal
    uart0int.o(i.copySoftwareToHardware) refers to uart0int.o(i.TxFifo_Size) for TxFifo_Size
    uart0int.o(i.copySoftwareToHardware) refers to os.o(.data) for TxRoomLeft
    edisk.o(i.SSI0_Init) refers to edisk.o(i.CS_Init) for CS_Init
    edisk.o(i.deselect) refers to edisk.o(i.xchg_spi) for xchg_spi
    edisk.o(i.disk_ioctl) refers to edisk.o(i.select) for select
    edisk.o(i.disk_ioctl) refers to edisk.o(i.send_cmd) for send_cmd
    edisk.o(i.disk_ioctl) refers to edisk.o(i.rcvr_datablock) for rcvr_datablock
    edisk.o(i.disk_ioctl) refers to edisk.o(i.xchg_spi) for xchg_spi
    edisk.o(i.disk_ioctl) refers to edisk.o(i.wait_ready) for wait_ready
    edisk.o(i.disk_ioctl) refers to edisk.o(i.deselect) for deselect
    edisk.o(i.disk_ioctl) refers to edisk.o(.data) for Stat
    edisk.o(i.disk_timerproc) refers to edisk.o(.data) for Timer1
    edisk.o(i.eDisk_Init) refers to edisk.o(i.init_spi) for init_spi
    edisk.o(i.eDisk_Init) refers to edisk.o(i.xchg_spi) for xchg_spi
    edisk.o(i.eDisk_Init) refers to edisk.o(i.send_cmd) for send_cmd
    edisk.o(i.eDisk_Init) refers to edisk.o(i.deselect) for deselect
    edisk.o(i.eDisk_Init) refers to edisk.o(.data) for Stat
    edisk.o(i.eDisk_Read) refers to edisk.o(i.send_cmd) for send_cmd
    edisk.o(i.eDisk_Read) refers to edisk.o(i.rcvr_datablock) for rcvr_datablock
    edisk.o(i.eDisk_Read) refers to edisk.o(i.deselect) for deselect
    edisk.o(i.eDisk_Read) refers to edisk.o(.data) for Stat
    edisk.o(i.eDisk_ReadBlock) refers to edisk.o(i.eDisk_Read) for eDisk_Read
    edisk.o(i.eDisk_Status) refers to edisk.o(.data) for Stat
    edisk.o(i.eDisk_Write) refers to edisk.o(i.send_cmd) for send_cmd
    edisk.o(i.eDisk_Write) refers to edisk.o(i.xmit_datablock) for xmit_datablock
    edisk.o(i.eDisk_Write) refers to edisk.o(i.deselect) for deselect
    edisk.o(i.eDisk_Write) refers to edisk.o(.data) for Stat
    edisk.o(i.eDisk_WriteBlock) refers to edisk.o(i.eDisk_Write) for eDisk_Write
    edisk.o(i.init_spi) refers to edisk.o(i.SSI0_Init) for SSI0_Init
    edisk.o(i.init_spi) refers to edisk.o(.data) for Timer1
    edisk.o(i.rcvr_datablock) refers to edisk.o(i.xchg_spi) for xchg_spi
    edisk.o(i.rcvr_datablock) refers to edisk.o(i.rcvr_spi_multi) for rcvr_spi_multi
    edisk.o(i.rcvr_datablock) refers to edisk.o(.data) for Timer1
    edisk.o(i.rcvr_spi_multi) refers to edisk.o(i.rcvr_spi) for rcvr_spi
    edisk.o(i.select) refers to edisk.o(i.xchg_spi) for xchg_spi
    edisk.o(i.select) refers to edisk.o(i.wait_ready) for wait_ready
    edisk.o(i.select) refers to edisk.o(i.deselect) for deselect
    edisk.o(i.send_cmd) refers to edisk.o(i.deselect) for deselect
    edisk.o(i.send_cmd) refers to edisk.o(i.select) for select
    edisk.o(i.send_cmd) refers to edisk.o(i.xchg_spi) for xchg_spi
    edisk.o(i.wait_ready) refers to edisk.o(i.xchg_spi) for xchg_spi
    edisk.o(i.wait_ready) refers to edisk.o(.data) for Timer2
    edisk.o(i.xmit_datablock) refers to edisk.o(i.wait_ready) for wait_ready
    edisk.o(i.xmit_datablock) refers to edisk.o(i.xchg_spi) for xchg_spi
    edisk.o(i.xmit_datablock) refers to edisk.o(i.xmit_spi_multi) for xmit_spi_multi
    efile.o(i.PrintDir) refers to uart0int.o(i.UART_OutString) for UART_OutString
    efile.o(i.PrintDir) refers to uart0int.o(i.UART_OutChar) for UART_OutChar
    efile.o(i.PrintDir) refers to efile.o(.bss) for Dir
    efile.o(i.eFile_Create) refers to efile.o(i.eFile_Unmount) for eFile_Unmount
    efile.o(i.eFile_Create) refers to efile.o(.bss) for Dir
    efile.o(i.eFile_Create) refers to efile.o(.data) for FileCreated
    efile.o(i.eFile_Delete) refers to strcmp.o(.text) for strcmp
    efile.o(i.eFile_Delete) refers to memcpya.o(.text) for __aeabi_memcpy4
    efile.o(i.eFile_Delete) refers to edisk.o(i.eDisk_WriteBlock) for eDisk_WriteBlock
    efile.o(i.eFile_Delete) refers to efile.o(.data) for FileCreated
    efile.o(i.eFile_Delete) refers to efile.o(.bss) for Dir
    efile.o(i.eFile_Format) refers to memcpya.o(.text) for __aeabi_memcpy4
    efile.o(i.eFile_Format) refers to edisk.o(i.eDisk_WriteBlock) for eDisk_WriteBlock
    efile.o(i.eFile_Format) refers to efile.o(.bss) for FAT
    efile.o(i.eFile_Format) refers to efile.o(.data) for FileCreated
    efile.o(i.eFile_Init) refers to edisk.o(i.eDisk_Init) for eDisk_Init
    efile.o(i.eFile_Mount) refers to edisk.o(i.eDisk_ReadBlock) for eDisk_ReadBlock
    efile.o(i.eFile_Mount) refers to memcpya.o(.text) for __aeabi_memcpy4
    efile.o(i.eFile_Mount) refers to memcmp.o(.text) for memcmp
    efile.o(i.eFile_Mount) refers to efile.o(.bss) for FAT
    efile.o(i.eFile_Mount) refers to efile.o(.data) for FileCreated
    efile.o(i.eFile_RClose) refers to memcpya.o(.text) for __aeabi_memcpy4
    efile.o(i.eFile_RClose) refers to efile.o(.data) for RDir
    efile.o(i.eFile_RClose) refers to efile.o(.bss) for Rbuffer
    efile.o(i.eFile_ROpen) refers to strcmp.o(.text) for strcmp
    efile.o(i.eFile_ROpen) refers to edisk.o(i.eDisk_ReadBlock) for eDisk_ReadBlock
    efile.o(i.eFile_ROpen) refers to efile.o(.bss) for Dir
    efile.o(i.eFile_ROpen) refers to efile.o(.data) for MAX_FILE
    efile.o(i.eFile_ReadNext) refers to edisk.o(i.eDisk_ReadBlock) for eDisk_ReadBlock
    efile.o(i.eFile_ReadNext) refers to efile.o(.data) for RNum
    efile.o(i.eFile_ReadNext) refers to efile.o(.bss) for Rbuffer
    efile.o(i.eFile_Unmount) refers to memcpya.o(.text) for __aeabi_memcpy4
    efile.o(i.eFile_Unmount) refers to edisk.o(i.eDisk_WriteBlock) for eDisk_WriteBlock
    efile.o(i.eFile_Unmount) refers to efile.o(.bss) for FAT
    efile.o(i.eFile_WClose) refers to edisk.o(i.eDisk_WriteBlock) for eDisk_WriteBlock
    efile.o(i.eFile_WClose) refers to memcpya.o(.text) for __aeabi_memcpy4
    efile.o(i.eFile_WClose) refers to efile.o(i.eFile_Unmount) for eFile_Unmount
    efile.o(i.eFile_WClose) refers to efile.o(.data) for WDir
    efile.o(i.eFile_WClose) refers to efile.o(.bss) for Wbuffer
    efile.o(i.eFile_WOpen) refers to strcmp.o(.text) for strcmp
    efile.o(i.eFile_WOpen) refers to efile.o(.data) for FileCreated
    efile.o(i.eFile_WOpen) refers to efile.o(.bss) for Dir
    efile.o(i.eFile_Write) refers to edisk.o(i.eDisk_WriteBlock) for eDisk_WriteBlock
    efile.o(i.eFile_Write) refers to memcpya.o(.text) for __aeabi_memcpy4
    efile.o(i.eFile_Write) refers to efile.o(.data) for WNum
    efile.o(i.eFile_Write) refers to efile.o(.bss) for Wbuffer
    ff.o(i.check_fs) refers to ff.o(i.move_window) for move_window
    ff.o(i.create_chain) refers to ff.o(i.get_fat) for get_fat
    ff.o(i.create_chain) refers to ff.o(i.put_fat) for put_fat
    ff.o(i.create_name) refers to ff.o(i.mem_set) for mem_set
    ff.o(i.create_name) refers to ff.o(i.chk_chr) for chk_chr
    ff.o(i.dir_alloc) refers to ff.o(i.dir_sdi) for dir_sdi
    ff.o(i.dir_alloc) refers to ff.o(i.move_window) for move_window
    ff.o(i.dir_alloc) refers to ff.o(i.dir_next) for dir_next
    ff.o(i.dir_find) refers to ff.o(i.dir_sdi) for dir_sdi
    ff.o(i.dir_find) refers to ff.o(i.move_window) for move_window
    ff.o(i.dir_find) refers to ff.o(i.mem_cmp) for mem_cmp
    ff.o(i.dir_find) refers to ff.o(i.dir_next) for dir_next
    ff.o(i.dir_next) refers to ff.o(i.get_fat) for get_fat
    ff.o(i.dir_next) refers to ff.o(i.create_chain) for create_chain
    ff.o(i.dir_next) refers to ff.o(i.sync_window) for sync_window
    ff.o(i.dir_next) refers to ff.o(i.mem_set) for mem_set
    ff.o(i.dir_next) refers to ff.o(i.clust2sect) for clust2sect
    ff.o(i.dir_read) refers to ff.o(i.move_window) for move_window
    ff.o(i.dir_read) refers to ff.o(i.dir_next) for dir_next
    ff.o(i.dir_register) refers to ff.o(i.dir_alloc) for dir_alloc
    ff.o(i.dir_register) refers to ff.o(i.move_window) for move_window
    ff.o(i.dir_register) refers to ff.o(i.mem_set) for mem_set
    ff.o(i.dir_register) refers to ff.o(i.mem_cpy) for mem_cpy
    ff.o(i.dir_remove) refers to ff.o(i.dir_sdi) for dir_sdi
    ff.o(i.dir_remove) refers to ff.o(i.move_window) for move_window
    ff.o(i.dir_remove) refers to ff.o(i.mem_set) for mem_set
    ff.o(i.dir_sdi) refers to ff.o(i.get_fat) for get_fat
    ff.o(i.dir_sdi) refers to ff.o(i.clust2sect) for clust2sect
    ff.o(i.f_chdir) refers to ff.o(i.find_volume) for find_volume
    ff.o(i.f_chdir) refers to ff.o(i.follow_path) for follow_path
    ff.o(i.f_chdir) refers to ff.o(i.ld_clust) for ld_clust
    ff.o(i.f_chmod) refers to ff.o(i.find_volume) for find_volume
    ff.o(i.f_chmod) refers to ff.o(i.follow_path) for follow_path
    ff.o(i.f_chmod) refers to ff.o(i.sync_fs) for sync_fs
    ff.o(i.f_close) refers to ff.o(i.f_sync) for f_sync
    ff.o(i.f_close) refers to ff.o(i.validate) for validate
    ff.o(i.f_closedir) refers to ff.o(i.validate) for validate
    ff.o(i.f_getcwd) refers to ff.o(i.find_volume) for find_volume
    ff.o(i.f_getcwd) refers to ff.o(i.dir_sdi) for dir_sdi
    ff.o(i.f_getcwd) refers to ff.o(i.dir_read) for dir_read
    ff.o(i.f_getcwd) refers to ff.o(i.ld_clust) for ld_clust
    ff.o(i.f_getcwd) refers to ff.o(i.dir_next) for dir_next
    ff.o(i.f_getcwd) refers to ff.o(i.get_fileinfo) for get_fileinfo
    ff.o(i.f_getfree) refers to ff.o(i.find_volume) for find_volume
    ff.o(i.f_getfree) refers to ff.o(i.get_fat) for get_fat
    ff.o(i.f_getfree) refers to ff.o(i.move_window) for move_window
    ff.o(i.f_getlabel) refers to ff.o(i.find_volume) for find_volume
    ff.o(i.f_getlabel) refers to ff.o(i.dir_sdi) for dir_sdi
    ff.o(i.f_getlabel) refers to ff.o(i.dir_read) for dir_read
    ff.o(i.f_getlabel) refers to ff.o(i.mem_cpy) for mem_cpy
    ff.o(i.f_getlabel) refers to ff.o(i.move_window) for move_window
    ff.o(i.f_lseek) refers to ff.o(i.validate) for validate
    ff.o(i.f_lseek) refers to ff.o(i.create_chain) for create_chain
    ff.o(i.f_lseek) refers to ff.o(i.get_fat) for get_fat
    ff.o(i.f_lseek) refers to ff.o(i.clust2sect) for clust2sect
    ff.o(i.f_lseek) refers to edisk.o(i.eDisk_Write) for eDisk_Write
    ff.o(i.f_lseek) refers to edisk.o(i.eDisk_Read) for eDisk_Read
    ff.o(i.f_mkdir) refers to ff.o(i.find_volume) for find_volume
    ff.o(i.f_mkdir) refers to ff.o(i.follow_path) for follow_path
    ff.o(i.f_mkdir) refers to ff.o(i.create_chain) for create_chain
    ff.o(i.f_mkdir) refers to ff.o(i.sync_window) for sync_window
    ff.o(i.f_mkdir) refers to ff.o(i.clust2sect) for clust2sect
    ff.o(i.f_mkdir) refers to ff.o(i.mem_set) for mem_set
    ff.o(i.f_mkdir) refers to ff.o(i.st_clust) for st_clust
    ff.o(i.f_mkdir) refers to ff.o(i.mem_cpy) for mem_cpy
    ff.o(i.f_mkdir) refers to ff.o(i.dir_register) for dir_register
    ff.o(i.f_mkdir) refers to ff.o(i.remove_chain) for remove_chain
    ff.o(i.f_mkdir) refers to ff.o(i.sync_fs) for sync_fs
    ff.o(i.f_mkfs) refers to ff.o(i.get_ldnumber) for get_ldnumber
    ff.o(i.f_mkfs) refers to edisk.o(i.eDisk_Init) for eDisk_Init
    ff.o(i.f_mkfs) refers to edisk.o(i.disk_ioctl) for disk_ioctl
    ff.o(i.f_mkfs) refers to ff.o(i.mem_set) for mem_set
    ff.o(i.f_mkfs) refers to edisk.o(i.eDisk_Write) for eDisk_Write
    ff.o(i.f_mkfs) refers to ff.o(i.mem_cpy) for mem_cpy
    ff.o(i.f_mkfs) refers to ff.o(.data) for FatFs
    ff.o(i.f_mkfs) refers to ff.o(.constdata) for vst
    ff.o(i.f_mount) refers to ff.o(i.get_ldnumber) for get_ldnumber
    ff.o(i.f_mount) refers to ff.o(i.find_volume) for find_volume
    ff.o(i.f_mount) refers to ff.o(.data) for FatFs
    ff.o(i.f_open) refers to ff.o(i.find_volume) for find_volume
    ff.o(i.f_open) refers to ff.o(i.follow_path) for follow_path
    ff.o(i.f_open) refers to ff.o(i.dir_register) for dir_register
    ff.o(i.f_open) refers to ff.o(i.ld_clust) for ld_clust
    ff.o(i.f_open) refers to ff.o(i.st_clust) for st_clust
    ff.o(i.f_open) refers to ff.o(i.remove_chain) for remove_chain
    ff.o(i.f_open) refers to ff.o(i.move_window) for move_window
    ff.o(i.f_opendir) refers to ff.o(i.find_volume) for find_volume
    ff.o(i.f_opendir) refers to ff.o(i.follow_path) for follow_path
    ff.o(i.f_opendir) refers to ff.o(i.ld_clust) for ld_clust
    ff.o(i.f_opendir) refers to ff.o(i.dir_sdi) for dir_sdi
    ff.o(i.f_read) refers to ff.o(i.validate) for validate
    ff.o(i.f_read) refers to ff.o(i.get_fat) for get_fat
    ff.o(i.f_read) refers to ff.o(i.clust2sect) for clust2sect
    ff.o(i.f_read) refers to edisk.o(i.eDisk_Read) for eDisk_Read
    ff.o(i.f_read) refers to ff.o(i.mem_cpy) for mem_cpy
    ff.o(i.f_read) refers to edisk.o(i.eDisk_Write) for eDisk_Write
    ff.o(i.f_readdir) refers to ff.o(i.validate) for validate
    ff.o(i.f_readdir) refers to ff.o(i.dir_sdi) for dir_sdi
    ff.o(i.f_readdir) refers to ff.o(i.dir_read) for dir_read
    ff.o(i.f_readdir) refers to ff.o(i.get_fileinfo) for get_fileinfo
    ff.o(i.f_readdir) refers to ff.o(i.dir_next) for dir_next
    ff.o(i.f_rename) refers to ff.o(i.find_volume) for find_volume
    ff.o(i.f_rename) refers to ff.o(i.follow_path) for follow_path
    ff.o(i.f_rename) refers to ff.o(i.mem_cpy) for mem_cpy
    ff.o(i.f_rename) refers to ff.o(i.get_ldnumber) for get_ldnumber
    ff.o(i.f_rename) refers to ff.o(i.dir_register) for dir_register
    ff.o(i.f_rename) refers to ff.o(i.ld_clust) for ld_clust
    ff.o(i.f_rename) refers to ff.o(i.clust2sect) for clust2sect
    ff.o(i.f_rename) refers to ff.o(i.move_window) for move_window
    ff.o(i.f_rename) refers to ff.o(i.st_clust) for st_clust
    ff.o(i.f_rename) refers to ff.o(i.dir_remove) for dir_remove
    ff.o(i.f_rename) refers to ff.o(i.sync_fs) for sync_fs
    ff.o(i.f_setlabel) refers to ff.o(i.find_volume) for find_volume
    ff.o(i.f_setlabel) refers to ff.o(i.chk_chr) for chk_chr
    ff.o(i.f_setlabel) refers to ff.o(i.dir_sdi) for dir_sdi
    ff.o(i.f_setlabel) refers to ff.o(i.dir_read) for dir_read
    ff.o(i.f_setlabel) refers to ff.o(i.mem_cpy) for mem_cpy
    ff.o(i.f_setlabel) refers to ff.o(i.sync_fs) for sync_fs
    ff.o(i.f_setlabel) refers to ff.o(i.dir_alloc) for dir_alloc
    ff.o(i.f_setlabel) refers to ff.o(i.mem_set) for mem_set
    ff.o(i.f_stat) refers to ff.o(i.find_volume) for find_volume
    ff.o(i.f_stat) refers to ff.o(i.follow_path) for follow_path
    ff.o(i.f_stat) refers to ff.o(i.get_fileinfo) for get_fileinfo
    ff.o(i.f_sync) refers to ff.o(i.validate) for validate
    ff.o(i.f_sync) refers to edisk.o(i.eDisk_Write) for eDisk_Write
    ff.o(i.f_sync) refers to ff.o(i.move_window) for move_window
    ff.o(i.f_sync) refers to ff.o(i.st_clust) for st_clust
    ff.o(i.f_sync) refers to ff.o(i.sync_fs) for sync_fs
    ff.o(i.f_truncate) refers to ff.o(i.validate) for validate
    ff.o(i.f_truncate) refers to ff.o(i.remove_chain) for remove_chain
    ff.o(i.f_truncate) refers to ff.o(i.get_fat) for get_fat
    ff.o(i.f_truncate) refers to ff.o(i.put_fat) for put_fat
    ff.o(i.f_truncate) refers to edisk.o(i.eDisk_Write) for eDisk_Write
    ff.o(i.f_unlink) refers to ff.o(i.find_volume) for find_volume
    ff.o(i.f_unlink) refers to ff.o(i.follow_path) for follow_path
    ff.o(i.f_unlink) refers to ff.o(i.ld_clust) for ld_clust
    ff.o(i.f_unlink) refers to ff.o(i.mem_cpy) for mem_cpy
    ff.o(i.f_unlink) refers to ff.o(i.dir_sdi) for dir_sdi
    ff.o(i.f_unlink) refers to ff.o(i.dir_read) for dir_read
    ff.o(i.f_unlink) refers to ff.o(i.dir_remove) for dir_remove
    ff.o(i.f_unlink) refers to ff.o(i.remove_chain) for remove_chain
    ff.o(i.f_unlink) refers to ff.o(i.sync_fs) for sync_fs
    ff.o(i.f_utime) refers to ff.o(i.find_volume) for find_volume
    ff.o(i.f_utime) refers to ff.o(i.follow_path) for follow_path
    ff.o(i.f_utime) refers to ff.o(i.sync_fs) for sync_fs
    ff.o(i.f_write) refers to ff.o(i.validate) for validate
    ff.o(i.f_write) refers to ff.o(i.create_chain) for create_chain
    ff.o(i.f_write) refers to edisk.o(i.eDisk_Write) for eDisk_Write
    ff.o(i.f_write) refers to ff.o(i.clust2sect) for clust2sect
    ff.o(i.f_write) refers to ff.o(i.mem_cpy) for mem_cpy
    ff.o(i.f_write) refers to edisk.o(i.eDisk_Read) for eDisk_Read
    ff.o(i.find_volume) refers to ff.o(i.get_ldnumber) for get_ldnumber
    ff.o(i.find_volume) refers to edisk.o(i.eDisk_Status) for eDisk_Status
    ff.o(i.find_volume) refers to edisk.o(i.eDisk_Init) for eDisk_Init
    ff.o(i.find_volume) refers to ff.o(i.check_fs) for check_fs
    ff.o(i.find_volume) refers to ff.o(i.move_window) for move_window
    ff.o(i.find_volume) refers to ff.o(.data) for FatFs
    ff.o(i.follow_path) refers to ff.o(i.dir_sdi) for dir_sdi
    ff.o(i.follow_path) refers to ff.o(i.create_name) for create_name
    ff.o(i.follow_path) refers to ff.o(i.dir_find) for dir_find
    ff.o(i.follow_path) refers to ff.o(i.ld_clust) for ld_clust
    ff.o(i.get_fat) refers to ff.o(i.move_window) for move_window
    ff.o(i.move_window) refers to ff.o(i.sync_window) for sync_window
    ff.o(i.move_window) refers to edisk.o(i.eDisk_Read) for eDisk_Read
    ff.o(i.put_fat) refers to ff.o(i.move_window) for move_window
    ff.o(i.remove_chain) refers to ff.o(i.get_fat) for get_fat
    ff.o(i.remove_chain) refers to ff.o(i.put_fat) for put_fat
    ff.o(i.sync_fs) refers to ff.o(i.sync_window) for sync_window
    ff.o(i.sync_fs) refers to ff.o(i.mem_set) for mem_set
    ff.o(i.sync_fs) refers to edisk.o(i.eDisk_Write) for eDisk_Write
    ff.o(i.sync_fs) refers to edisk.o(i.disk_ioctl) for disk_ioctl
    ff.o(i.sync_window) refers to edisk.o(i.eDisk_Write) for eDisk_Write
    ff.o(i.validate) refers to edisk.o(i.eDisk_Status) for eDisk_Status
    osasm.o(.text) refers to os.o(i.OS_Id) for OS_Id
    osasm.o(.text) refers to os.o(i.OS_Kill) for OS_Kill
    osasm.o(.text) refers to os.o(i.OS_Sleep) for OS_Sleep
    osasm.o(.text) refers to os.o(i.OS_Time) for OS_Time
    osasm.o(.text) refers to os.o(i.OS_AddThread) for OS_AddThread
    osasm.o(.text) refers to os.o(.data) for RunPt
    adct0atrigger.o(i.ADC0Seq0_Handler) refers to adct0atrigger.o(.data) for ADCTask
    adct0atrigger.o(i.ADC0Seq3_Handler) refers to adct0atrigger.o(.data) for PD3data
    adct0atrigger.o(i.ADC0_InitTimer0ATriggerSeq0) refers to adct0atrigger.o(i.dummyADC) for dummyADC
    adct0atrigger.o(i.ADC0_InitTimer0ATriggerSeq0) refers to adct0atrigger.o(.data) for ADCTask
    adcswtrigger.o(i.ADC0_InSeq2) refers to adcswtrigger.o(.data) for UserTask2
    adcswtrigger.o(i.ADC0_InitSWTriggerSeq2) refers to adcswtrigger.o(.data) for UserTask2
    pid_stm32.o(.text) refers to lab6.o(.data) for IntTerm
    lpf.o(i.Filter) refers to lpf.o(.data) for n
    lpf.o(i.Filter) refers to lpf.o(.bss) for x
    lpf.o(i.LPF_Calc) refers to lpf.o(.data) for I1
    lpf.o(i.LPF_Calc) refers to lpf.o(.bss) for x1
    lpf.o(i.LPF_Calc2) refers to lpf.o(.data) for I2
    lpf.o(i.LPF_Calc2) refers to lpf.o(.bss) for x2
    lpf.o(i.LPF_Calc3) refers to lpf.o(.data) for I3
    lpf.o(i.LPF_Calc3) refers to lpf.o(.bss) for x3
    lpf.o(i.LPF_Calc4) refers to lpf.o(.data) for I4
    lpf.o(i.LPF_Calc4) refers to lpf.o(.bss) for x4
    lpf.o(i.LPF_Calc5) refers to lpf.o(.data) for I5
    lpf.o(i.LPF_Calc5) refers to lpf.o(.bss) for x5
    lpf.o(i.LPF_Calc6) refers to lpf.o(.data) for I6
    lpf.o(i.LPF_Calc6) refers to lpf.o(.bss) for x6
    lpf.o(i.LPF_Calc7) refers to lpf.o(.data) for I7
    lpf.o(i.LPF_Calc7) refers to lpf.o(.bss) for x7
    lpf.o(i.LPF_Init) refers to lpf.o(.data) for Size1
    lpf.o(i.LPF_Init) refers to lpf.o(.bss) for x1
    lpf.o(i.LPF_Init2) refers to lpf.o(.data) for Size2
    lpf.o(i.LPF_Init2) refers to lpf.o(.bss) for x2
    lpf.o(i.LPF_Init3) refers to lpf.o(.data) for Size3
    lpf.o(i.LPF_Init3) refers to lpf.o(.bss) for x3
    lpf.o(i.LPF_Init4) refers to lpf.o(.data) for Size4
    lpf.o(i.LPF_Init4) refers to lpf.o(.bss) for x4
    lpf.o(i.LPF_Init5) refers to lpf.o(.data) for Size5
    lpf.o(i.LPF_Init5) refers to lpf.o(.bss) for x5
    lpf.o(i.LPF_Init6) refers to lpf.o(.data) for Size6
    lpf.o(i.LPF_Init6) refers to lpf.o(.bss) for x6
    lpf.o(i.LPF_Init7) refers to lpf.o(.data) for Size7
    lpf.o(i.LPF_Init7) refers to lpf.o(.bss) for x7
    lpf.o(i.Median) refers to lpf.o(.data) for u2
    lpf.o(i.Noise) refers to lpf.o(i.sqrt2) for sqrt2
    lpf.o(i.Noise) refers to lpf.o(.data) for Size1
    lpf.o(i.Noise) refers to lpf.o(.bss) for x1
    lpf.o(i.Noise2) refers to lpf.o(i.sqrt2) for sqrt2
    lpf.o(i.Noise2) refers to lpf.o(.data) for Size2
    lpf.o(i.Noise2) refers to lpf.o(.bss) for x2
    lpf.o(i.Noise3) refers to lpf.o(i.sqrt2) for sqrt2
    lpf.o(i.Noise3) refers to lpf.o(.data) for Size3
    lpf.o(i.Noise3) refers to lpf.o(.bss) for x3
    lpf.o(i.Noise4) refers to lpf.o(i.sqrt2) for sqrt2
    lpf.o(i.Noise4) refers to lpf.o(.data) for Size4
    lpf.o(i.Noise4) refers to lpf.o(.bss) for x4
    lpf.o(i.Noise5) refers to lpf.o(i.sqrt2) for sqrt2
    lpf.o(i.Noise5) refers to lpf.o(.data) for Size5
    lpf.o(i.Noise5) refers to lpf.o(.bss) for x5
    lpf.o(i.Noise6) refers to lpf.o(i.sqrt2) for sqrt2
    lpf.o(i.Noise6) refers to lpf.o(.data) for Size6
    lpf.o(i.Noise6) refers to lpf.o(.bss) for x6
    lpf.o(i.Noise7) refers to lpf.o(i.sqrt2) for sqrt2
    lpf.o(i.Noise7) refers to lpf.o(.data) for Size7
    lpf.o(i.Noise7) refers to lpf.o(.bss) for x7
    irdistance.o(i.IRDistance_Convert) refers to irdistance.o(.constdata) for IRmax
    wtimer0a.o(i.WideTimer0A_Handler) refers to wtimer0a.o(.data) for WidePeriodicTask0
    wtimer0a.o(i.WideTimer0A_Init) refers to wtimer0a.o(.data) for WidePeriodicTask0
    heap.o(i.Heap_Calloc) refers to heap.o(i.Judge_Free_Space) for Judge_Free_Space
    heap.o(i.Heap_Calloc) refers to heap.o(.bss) for Heap
    heap.o(i.Heap_Free) refers to heap.o(.bss) for Heap
    heap.o(i.Heap_Init) refers to heap.o(.bss) for Heap
    heap.o(i.Heap_Malloc) refers to heap.o(i.Judge_Free_Space) for Judge_Free_Space
    heap.o(i.Heap_Malloc) refers to heap.o(.bss) for Heap
    heap.o(i.Heap_Realloc) refers to heap.o(i.Heap_Malloc) for Heap_Malloc
    heap.o(i.Heap_Realloc) refers to memcpya.o(.text) for __aeabi_memcpy
    heap.o(i.Heap_Realloc) refers to heap.o(i.Heap_Free) for Heap_Free
    heap.o(i.Heap_Stats) refers to heap.o(.bss) for Heap
    loader.o(i.LOADER_OPEN_FOR_RD) refers to ff.o(i.f_open) for f_open
    loader.o(i.LOADER_OPEN_FOR_RD) refers to loader.o(.bss) for fd
    loader.o(i.LOADER_READ) refers to ff.o(i.f_read) for f_read
    loader.o(i.LOADER_WRITE) refers to ff.o(i.f_write) for f_write
    loader.o(i.addressOf) refers to strcmp.o(.text) for strcmp
    loader.o(i.addressOf) refers to loader.o(i.sectionOf) for sectionOf
    loader.o(i.exec_elf) refers to loader.o(i.LOADER_OPEN_FOR_RD) for LOADER_OPEN_FOR_RD
    loader.o(i.exec_elf) refers to loader.o(i.initElf) for initElf
    loader.o(i.exec_elf) refers to loader.o(i.loadProgram) for loadProgram
    loader.o(i.exec_elf) refers to loader.o(i.relocateProgram) for relocateProgram
    loader.o(i.exec_elf) refers to loader.o(i.jumpTo) for jumpTo
    loader.o(i.exec_elf) refers to loader.o(i.freeElf) for freeElf
    loader.o(i.exec_elf) refers to uart0int.o(i.UART_OutString) for UART_OutString
    loader.o(i.exec_elf) refers to loader.o(i.loadSymbols) for loadSymbols
    loader.o(i.exec_elf) refers to loader.o(i.relocateSections) for relocateSections
    loader.o(i.exec_elf) refers to loader.o(.bss) for exec
    loader.o(i.freeElf) refers to ff.o(i.f_close) for f_close
    loader.o(i.freeSection) refers to heap.o(i.Heap_Free) for Heap_Free
    loader.o(i.freeSegment) refers to heap.o(i.Heap_Free) for Heap_Free
    loader.o(i.initElf) refers to loader.o(i.LOADER_CLEAR) for LOADER_CLEAR
    loader.o(i.initElf) refers to loader.o(i.LOADER_READ) for LOADER_READ
    loader.o(i.initElf) refers to ff.o(i.f_lseek) for f_lseek
    loader.o(i.jumpTo) refers to os.o(i.OS_AddProcess) for OS_AddProcess
    loader.o(i.jumpTo) refers to uart0int.o(i.UART_OutString) for UART_OutString
    loader.o(i.loadProgram) refers to uart0int.o(i.UART_OutString) for UART_OutString
    loader.o(i.loadProgram) refers to loader.o(i.readSegHeader) for readSegHeader
    loader.o(i.loadProgram) refers to loader.o(i.placeDynamic) for placeDynamic
    loader.o(i.loadProgram) refers to loader.o(i.loadSegData) for loadSegData
    loader.o(i.loadSecData) refers to uart0int.o(i.UART_OutString) for UART_OutString
    loader.o(i.loadSecData) refers to heap.o(i.Heap_Malloc) for Heap_Malloc
    loader.o(i.loadSecData) refers to ff.o(i.f_lseek) for f_lseek
    loader.o(i.loadSecData) refers to loader.o(i.freeSection) for freeSection
    loader.o(i.loadSecData) refers to loader.o(i.LOADER_READ) for LOADER_READ
    loader.o(i.loadSecData) refers to loader.o(i.LOADER_CLEAR) for LOADER_CLEAR
    loader.o(i.loadSecData) refers to loader.o(i.dumpData) for dumpData
    loader.o(i.loadSegData) refers to uart0int.o(i.UART_OutString) for UART_OutString
    loader.o(i.loadSegData) refers to heap.o(i.Heap_Malloc) for Heap_Malloc
    loader.o(i.loadSegData) refers to ff.o(i.f_lseek) for f_lseek
    loader.o(i.loadSegData) refers to loader.o(i.freeSegment) for freeSegment
    loader.o(i.loadSegData) refers to loader.o(i.LOADER_READ) for LOADER_READ
    loader.o(i.loadSegData) refers to loader.o(i.LOADER_CLEAR) for LOADER_CLEAR
    loader.o(i.loadSegData) refers to loader.o(i.dumpData) for dumpData
    loader.o(i.loadSymbols) refers to uart0int.o(i.UART_OutString) for UART_OutString
    loader.o(i.loadSymbols) refers to memcpya.o(.text) for __aeabi_memcpy4
    loader.o(i.loadSymbols) refers to loader.o(i.readSecHeader) for readSecHeader
    loader.o(i.loadSymbols) refers to loader.o(i.readSectionName) for readSectionName
    loader.o(i.loadSymbols) refers to loader.o(i.placeInfo) for placeInfo
    loader.o(i.loadSymbols) refers to loader.o(.constdata) for .constdata
    loader.o(i.placeDynamic) refers to ff.o(i.f_lseek) for f_lseek
    loader.o(i.placeDynamic) refers to loader.o(i.LOADER_READ) for LOADER_READ
    loader.o(i.placeInfo) refers to strcmp.o(.text) for strcmp
    loader.o(i.placeInfo) refers to loader.o(i.loadSecData) for loadSecData
    loader.o(i.readSecHeader) refers to ff.o(i.f_lseek) for f_lseek
    loader.o(i.readSecHeader) refers to loader.o(i.LOADER_READ) for LOADER_READ
    loader.o(i.readSection) refers to loader.o(i.readSecHeader) for readSecHeader
    loader.o(i.readSection) refers to loader.o(i.readSectionName) for readSectionName
    loader.o(i.readSectionName) refers to ff.o(i.f_lseek) for f_lseek
    loader.o(i.readSectionName) refers to loader.o(i.LOADER_READ) for LOADER_READ
    loader.o(i.readSegHeader) refers to ff.o(i.f_lseek) for f_lseek
    loader.o(i.readSegHeader) refers to loader.o(i.LOADER_READ) for LOADER_READ
    loader.o(i.readSymbol) refers to ff.o(i.f_lseek) for f_lseek
    loader.o(i.readSymbol) refers to loader.o(i.LOADER_READ) for LOADER_READ
    loader.o(i.readSymbol) refers to loader.o(i.readSymbolName) for readSymbolName
    loader.o(i.readSymbol) refers to loader.o(i.readSection) for readSection
    loader.o(i.readSymbolName) refers to ff.o(i.f_lseek) for f_lseek
    loader.o(i.readSymbolName) refers to loader.o(i.LOADER_READ) for LOADER_READ
    loader.o(i.relocate) refers to ff.o(i.f_lseek) for f_lseek
    loader.o(i.relocate) refers to loader.o(i.LOADER_READ) for LOADER_READ
    loader.o(i.relocate) refers to memcpya.o(.text) for __aeabi_memcpy4
    loader.o(i.relocate) refers to loader.o(i.readSymbol) for readSymbol
    loader.o(i.relocate) refers to loader.o(i.addressOf) for addressOf
    loader.o(i.relocate) refers to loader.o(i.relocateSymbol) for relocateSymbol
    loader.o(i.relocate) refers to uart0int.o(i.UART_OutString) for UART_OutString
    loader.o(i.relocate) refers to loader.o(.constdata) for .constdata
    loader.o(i.relocateProgram) refers to loader.o(i.relocate) for relocate
    loader.o(i.relocateProgram) refers to uart0int.o(i.UART_OutString) for UART_OutString
    loader.o(i.relocateSection) refers to loader.o(i.readSecHeader) for readSecHeader
    loader.o(i.relocateSection) refers to loader.o(i.relocate) for relocate
    loader.o(i.relocateSection) refers to uart0int.o(i.UART_OutString) for UART_OutString
    loader.o(i.relocateSections) refers to loader.o(i.relocateSection) for relocateSection
    loader.o(i.relocateSymbol) refers to loader.o(i.relJmpCall) for relJmpCall
    can.o(i.CANBitRateSet) refers to can.o(i.CANRegRead) for CANRegRead
    can.o(i.CANBitRateSet) refers to can.o(i.CANRegWrite) for CANRegWrite
    can.o(i.CANBitRateSet) refers to can.o(.constdata) for g_usCANBitValues
    can.o(i.CANDataRegRead) refers to can.o(i.CANRegRead) for CANRegRead
    can.o(i.CANDataRegWrite) refers to can.o(i.CANRegWrite) for CANRegWrite
    can.o(i.CANDisable) refers to can.o(i.CANRegRead) for CANRegRead
    can.o(i.CANDisable) refers to can.o(i.CANRegWrite) for CANRegWrite
    can.o(i.CANEnable) refers to can.o(i.CANRegRead) for CANRegRead
    can.o(i.CANEnable) refers to can.o(i.CANRegWrite) for CANRegWrite
    can.o(i.CANErrCntrGet) refers to can.o(i.CANRegRead) for CANRegRead
    can.o(i.CANInit) refers to can.o(i.CANRegWrite) for CANRegWrite
    can.o(i.CANInit) refers to can.o(i.CANRegRead) for CANRegRead
    can.o(i.CANIntClear) refers to can.o(i.CANRegRead) for CANRegRead
    can.o(i.CANIntClear) refers to can.o(i.CANRegWrite) for CANRegWrite
    can.o(i.CANIntDisable) refers to can.o(i.CANRegRead) for CANRegRead
    can.o(i.CANIntDisable) refers to can.o(i.CANRegWrite) for CANRegWrite
    can.o(i.CANIntEnable) refers to can.o(i.CANRegRead) for CANRegRead
    can.o(i.CANIntEnable) refers to can.o(i.CANRegWrite) for CANRegWrite
    can.o(i.CANIntRegister) refers to can.o(i.CANIntNumberGet) for CANIntNumberGet
    can.o(i.CANIntRegister) refers to interrupt.o(i.IntRegister) for IntRegister
    can.o(i.CANIntRegister) refers to interrupt.o(i.IntEnable) for IntEnable
    can.o(i.CANIntStatus) refers to can.o(i.CANRegRead) for CANRegRead
    can.o(i.CANIntUnregister) refers to can.o(i.CANIntNumberGet) for CANIntNumberGet
    can.o(i.CANIntUnregister) refers to interrupt.o(i.IntUnregister) for IntUnregister
    can.o(i.CANIntUnregister) refers to interrupt.o(i.IntDisable) for IntDisable
    can.o(i.CANMessageClear) refers to can.o(i.CANRegRead) for CANRegRead
    can.o(i.CANMessageClear) refers to can.o(i.CANRegWrite) for CANRegWrite
    can.o(i.CANMessageGet) refers to can.o(i.CANRegWrite) for CANRegWrite
    can.o(i.CANMessageGet) refers to can.o(i.CANRegRead) for CANRegRead
    can.o(i.CANMessageGet) refers to can.o(i.CANDataRegRead) for CANDataRegRead
    can.o(i.CANMessageSet) refers to can.o(i.CANRegRead) for CANRegRead
    can.o(i.CANMessageSet) refers to can.o(i.CANDataRegWrite) for CANDataRegWrite
    can.o(i.CANMessageSet) refers to can.o(i.CANRegWrite) for CANRegWrite
    can.o(i.CANRegRead) refers to can.o(i.CANIntNumberGet) for CANIntNumberGet
    can.o(i.CANRegRead) refers to interrupt.o(i.IntDisable) for IntDisable
    can.o(i.CANRegRead) refers to interrupt.o(i.IntEnable) for IntEnable
    can.o(i.CANRetryGet) refers to can.o(i.CANRegRead) for CANRegRead
    can.o(i.CANRetrySet) refers to can.o(i.CANRegRead) for CANRegRead
    can.o(i.CANRetrySet) refers to can.o(i.CANRegWrite) for CANRegWrite
    can.o(i.CANStatusGet) refers to can.o(i.CANRegRead) for CANRegRead
    can.o(i.CANStatusGet) refers to can.o(i.CANRegWrite) for CANRegWrite
    can0.o(i.CAN0_CheckMail) refers to can0.o(.data) for MailFlag
    can0.o(i.CAN0_GetMail) refers to can0.o(.data) for MailFlag
    can0.o(i.CAN0_GetMailNonBlock) refers to can0.o(.data) for MailFlag
    can0.o(i.CAN0_Handler) refers to can.o(i.CANIntStatus) for CANIntStatus
    can0.o(i.CAN0_Handler) refers to can.o(i.CANStatusGet) for CANStatusGet
    can0.o(i.CAN0_Handler) refers to can.o(i.CANMessageGet) for CANMessageGet
    can0.o(i.CAN0_Handler) refers to can.o(i.CANIntClear) for CANIntClear
    can0.o(i.CAN0_Handler) refers to can0.o(.data) for RCV_ID
    can0.o(i.CAN0_Open) refers to can.o(i.CANInit) for CANInit
    can0.o(i.CAN0_Open) refers to can.o(i.CANBitRateSet) for CANBitRateSet
    can0.o(i.CAN0_Open) refers to can.o(i.CANEnable) for CANEnable
    can0.o(i.CAN0_Open) refers to can.o(i.CANIntEnable) for CANIntEnable
    can0.o(i.CAN0_Open) refers to can0.o(i.CAN0_Setup_Message_Object) for CAN0_Setup_Message_Object
    can0.o(i.CAN0_Open) refers to can0.o(.data) for RCV_ID
    can0.o(i.CAN0_SendData) refers to can0.o(i.CAN0_Setup_Message_Object) for CAN0_Setup_Message_Object
    can0.o(i.CAN0_SendData) refers to can0.o(.data) for XMT_ID
    can0.o(i.CAN0_Setup_Message_Object) refers to can.o(i.CANMessageSet) for CANMessageSet
    esp8266.o(i.ESP8266BufferToTx) refers to esp8266.o(i.ESP8266TxFifo_Get) for ESP8266TxFifo_Get
    esp8266.o(i.ESP8266BufferToTx) refers to uart0int.o(i.UART_OutCharNonBlock) for UART_OutCharNonBlock
    esp8266.o(i.ESP8266BufferToTx) refers to esp8266.o(i.ESP8266TxFifo_Size) for ESP8266TxFifo_Size
    esp8266.o(i.ESP8266BufferToTx) refers to esp8266.o(.data) for ESP8266_EchoCommand
    esp8266.o(i.ESP8266Rx0Fifo_Get) refers to esp8266.o(.data) for ESP8266Rx0PutI
    esp8266.o(i.ESP8266Rx0Fifo_Get) refers to esp8266.o(.bss) for ESP8266Rx0Fifo
    esp8266.o(i.ESP8266Rx0Fifo_Init) refers to esp8266.o(.data) for ESP8266Rx0GetI
    esp8266.o(i.ESP8266Rx0Fifo_Put) refers to esp8266.o(.data) for ESP8266Rx0PutI
    esp8266.o(i.ESP8266Rx0Fifo_Put) refers to esp8266.o(.bss) for ESP8266Rx0Fifo
    esp8266.o(i.ESP8266Rx0Fifo_Size) refers to esp8266.o(.data) for ESP8266Rx0PutI
    esp8266.o(i.ESP8266RxFifo_Get) refers to esp8266.o(.data) for ESP8266RxPutI
    esp8266.o(i.ESP8266RxFifo_Get) refers to esp8266.o(.bss) for ESP8266RxFifo
    esp8266.o(i.ESP8266RxFifo_Init) refers to esp8266.o(.data) for ESP8266RxGetI
    esp8266.o(i.ESP8266RxFifo_Put) refers to esp8266.o(.data) for ESP8266RxPutI
    esp8266.o(i.ESP8266RxFifo_Put) refers to esp8266.o(.bss) for ESP8266RxFifo
    esp8266.o(i.ESP8266RxFifo_Size) refers to esp8266.o(.data) for ESP8266RxPutI
    esp8266.o(i.ESP8266RxToBuffer) refers to uart0int.o(i.UART_OutCharNonBlock) for UART_OutCharNonBlock
    esp8266.o(i.ESP8266RxToBuffer) refers to esp8266.o(i.ReceiveDataFilter) for ReceiveDataFilter
    esp8266.o(i.ESP8266RxToBuffer) refers to esp8266.o(i.ESP8266RxFifo_Put) for ESP8266RxFifo_Put
    esp8266.o(i.ESP8266RxToBuffer) refers to esp8266.o(i.ESP8266RxFifo_Size) for ESP8266RxFifo_Size
    esp8266.o(i.ESP8266RxToBuffer) refers to esp8266.o(.data) for ESP8266_EchoResponse
    esp8266.o(i.ESP8266TxFifo_Get) refers to esp8266.o(.data) for ESP8266TxPutI
    esp8266.o(i.ESP8266TxFifo_Get) refers to esp8266.o(.bss) for ESP8266TxFifo
    esp8266.o(i.ESP8266TxFifo_Init) refers to esp8266.o(.data) for ESP8266TxGetI
    esp8266.o(i.ESP8266TxFifo_Put) refers to esp8266.o(.data) for ESP8266TxPutI
    esp8266.o(i.ESP8266TxFifo_Put) refers to esp8266.o(.bss) for ESP8266TxFifo
    esp8266.o(i.ESP8266TxFifo_Size) refers to esp8266.o(.data) for ESP8266TxPutI
    esp8266.o(i.ESP8266_CloseTCPConnection) refers to esp8266.o(i.ESP8266_SendCommand) for ESP8266_SendCommand
    esp8266.o(i.ESP8266_CloseTCPConnection) refers to esp8266.o(i.ESP8266_WaitForResponse) for ESP8266_WaitForResponse
    esp8266.o(i.ESP8266_CloseTCPConnection) refers to esp8266.o(i.ESP8266Rx0Fifo_Init) for ESP8266Rx0Fifo_Init
    esp8266.o(i.ESP8266_CloseTCPConnection) refers to esp8266.o(.data) for ESP8266_ConnectionMux
    esp8266.o(i.ESP8266_CloseTCPConnection) refers to esp8266.o(.constdata) for ESP8266_ERROR_RESPONSE
    esp8266.o(i.ESP8266_ConfigureAccessPoint) refers to esp8266.o(i.ESP8266_SendCommand) for ESP8266_SendCommand
    esp8266.o(i.ESP8266_ConfigureAccessPoint) refers to printf1.o(i.__0sprintf$1) for __2sprintf
    esp8266.o(i.ESP8266_ConfigureAccessPoint) refers to esp8266.o(i.ESP8266_WaitForResponse) for ESP8266_WaitForResponse
    esp8266.o(i.ESP8266_ConfigureAccessPoint) refers to esp8266.o(.constdata) for ESP8266_ERROR_RESPONSE
    esp8266.o(i.ESP8266_Connect) refers to esp8266.o(i.ESP8266_Reset) for ESP8266_Reset
    esp8266.o(i.ESP8266_Connect) refers to esp8266.o(i.ESP8266_GetMACAddress) for ESP8266_GetMACAddress
    esp8266.o(i.ESP8266_Connect) refers to esp8266.o(i.ESP8266_ListAccessPoints) for ESP8266_ListAccessPoints
    esp8266.o(i.ESP8266_Connect) refers to esp8266.o(i.ESP8266_SetWifiMode) for ESP8266_SetWifiMode
    esp8266.o(i.ESP8266_Connect) refers to esp8266.o(i.ESP8266_JoinAccessPoint) for ESP8266_JoinAccessPoint
    esp8266.o(i.ESP8266_Connect) refers to esp8266.o(i.ESP8266_GetIPAddress) for ESP8266_GetIPAddress
    esp8266.o(i.ESP8266_DisableServer) refers to esp8266.o(i.ESP8266_SendCommand) for ESP8266_SendCommand
    esp8266.o(i.ESP8266_DisableServer) refers to esp8266.o(i.ESP8266_WaitForResponse) for ESP8266_WaitForResponse
    esp8266.o(i.ESP8266_DisableServer) refers to esp8266.o(.constdata) for ESP8266_OK_RESPONSE
    esp8266.o(i.ESP8266_DisableServer) refers to esp8266.o(.data) for ESP8266_Server
    esp8266.o(i.ESP8266_EnableServer) refers to printf1.o(i.__0sprintf$1) for __2sprintf
    esp8266.o(i.ESP8266_EnableServer) refers to esp8266.o(i.ESP8266_SendCommand) for ESP8266_SendCommand
    esp8266.o(i.ESP8266_EnableServer) refers to esp8266.o(i.ESP8266_WaitForResponse) for ESP8266_WaitForResponse
    esp8266.o(i.ESP8266_EnableServer) refers to esp8266.o(.constdata) for ESP8266_OK_RESPONSE
    esp8266.o(i.ESP8266_EnableServer) refers to esp8266.o(.data) for ESP8266_Server
    esp8266.o(i.ESP8266_GetIPAddress) refers to esp8266.o(i.ESP8266_SendCommand) for ESP8266_SendCommand
    esp8266.o(i.ESP8266_GetIPAddress) refers to esp8266.o(i.ESP8266_WaitForResponse) for ESP8266_WaitForResponse
    esp8266.o(i.ESP8266_GetIPAddress) refers to esp8266.o(.constdata) for ESP8266_ERROR_RESPONSE
    esp8266.o(i.ESP8266_GetMACAddress) refers to esp8266.o(i.ESP8266_SendCommand) for ESP8266_SendCommand
    esp8266.o(i.ESP8266_GetMACAddress) refers to esp8266.o(i.ESP8266_WaitForResponse) for ESP8266_WaitForResponse
    esp8266.o(i.ESP8266_GetMACAddress) refers to esp8266.o(.constdata) for ESP8266_OK_RESPONSE
    esp8266.o(i.ESP8266_GetStatus) refers to esp8266.o(i.ESP8266_SendCommand) for ESP8266_SendCommand
    esp8266.o(i.ESP8266_GetStatus) refers to esp8266.o(i.ESP8266_WaitForResponse) for ESP8266_WaitForResponse
    esp8266.o(i.ESP8266_GetStatus) refers to esp8266.o(.constdata) for ESP8266_OK_RESPONSE
    esp8266.o(i.ESP8266_GetVersionNumber) refers to esp8266.o(i.ESP8266_SendCommand) for ESP8266_SendCommand
    esp8266.o(i.ESP8266_GetVersionNumber) refers to esp8266.o(i.ESP8266_WaitForResponse) for ESP8266_WaitForResponse
    esp8266.o(i.ESP8266_GetVersionNumber) refers to esp8266.o(.constdata) for ESP8266_OK_RESPONSE
    esp8266.o(i.ESP8266_InChar) refers to esp8266.o(i.ESP8266RxFifo_Get) for ESP8266RxFifo_Get
    esp8266.o(i.ESP8266_Init) refers to esp8266.o(i.ESP8266_DisableInterrupt) for ESP8266_DisableInterrupt
    esp8266.o(i.ESP8266_Init) refers to esp8266.o(i.ESP8266_InitUART) for ESP8266_InitUART
    esp8266.o(i.ESP8266_Init) refers to esp8266.o(i.DelayMs) for DelayMs
    esp8266.o(i.ESP8266_Init) refers to uart0int.o(i.UART_OutCharNonBlock) for UART_OutCharNonBlock
    esp8266.o(i.ESP8266_Init) refers to esp8266.o(i.ESP8266_EnableInterrupt) for ESP8266_EnableInterrupt
    esp8266.o(i.ESP8266_Init) refers to esp8266.o(.constdata) for ESP8266_READY_RESPONSE
    esp8266.o(i.ESP8266_InitUART) refers to esp8266.o(i.ESP8266TxFifo_Init) for ESP8266TxFifo_Init
    esp8266.o(i.ESP8266_InitUART) refers to esp8266.o(i.ESP8266RxFifo_Init) for ESP8266RxFifo_Init
    esp8266.o(i.ESP8266_InitUART) refers to esp8266.o(i.ESP8266Rx0Fifo_Init) for ESP8266Rx0Fifo_Init
    esp8266.o(i.ESP8266_InitUART) refers to esp8266.o(.data) for ESP8266_EchoResponse
    esp8266.o(i.ESP8266_JoinAccessPoint) refers to esp8266.o(i.ESP8266_SendCommand) for ESP8266_SendCommand
    esp8266.o(i.ESP8266_JoinAccessPoint) refers to esp8266.o(i.ESP8266_WaitForResponse) for ESP8266_WaitForResponse
    esp8266.o(i.ESP8266_JoinAccessPoint) refers to esp8266.o(.constdata) for ESP8266_FAIL_RESPONSE
    esp8266.o(i.ESP8266_ListAccessPoints) refers to esp8266.o(i.ESP8266_SendCommand) for ESP8266_SendCommand
    esp8266.o(i.ESP8266_ListAccessPoints) refers to esp8266.o(i.ESP8266_WaitForResponse) for ESP8266_WaitForResponse
    esp8266.o(i.ESP8266_ListAccessPoints) refers to esp8266.o(.constdata) for ESP8266_ERROR_RESPONSE
    esp8266.o(i.ESP8266_MakeTCPConnection) refers to esp8266.o(i.ESP8266_SendCommand) for ESP8266_SendCommand
    esp8266.o(i.ESP8266_MakeTCPConnection) refers to printf1.o(i.__0sprintf$1) for __2sprintf
    esp8266.o(i.ESP8266_MakeTCPConnection) refers to esp8266.o(i.ESP8266_WaitForResponse) for ESP8266_WaitForResponse
    esp8266.o(i.ESP8266_MakeTCPConnection) refers to esp8266.o(.constdata) for ESP8266_ERROR_RESPONSE
    esp8266.o(i.ESP8266_OutChar) refers to esp8266.o(i.ESP8266TxFifo_Put) for ESP8266TxFifo_Put
    esp8266.o(i.ESP8266_OutChar) refers to esp8266.o(i.ESP8266BufferToTx) for ESP8266BufferToTx
    esp8266.o(i.ESP8266_QuitAccessPoint) refers to esp8266.o(i.ESP8266_SendCommand) for ESP8266_SendCommand
    esp8266.o(i.ESP8266_QuitAccessPoint) refers to esp8266.o(i.ESP8266_WaitForResponse) for ESP8266_WaitForResponse
    esp8266.o(i.ESP8266_QuitAccessPoint) refers to esp8266.o(.constdata) for ESP8266_OK_RESPONSE
    esp8266.o(i.ESP8266_Receive) refers to esp8266.o(i.ESP8266Rx0Fifo_Size) for ESP8266Rx0Fifo_Size
    esp8266.o(i.ESP8266_Receive) refers to esp8266.o(i.ESP8266Rx0Fifo_Get) for ESP8266Rx0Fifo_Get
    esp8266.o(i.ESP8266_Receive) refers to startup.o(.text) for StartCritical
    esp8266.o(i.ESP8266_Receive) refers to esp8266.o(i.ESP8266_WaitForResponse) for ESP8266_WaitForResponse
    esp8266.o(i.ESP8266_Receive) refers to esp8266.o(i.ESP8266_InChar) for ESP8266_InChar
    esp8266.o(i.ESP8266_Receive) refers to esp8266.o(.data) for ESP8266_DataAvailable
    esp8266.o(i.ESP8266_Receive) refers to esp8266.o(.constdata) for ReceiveDataSearchString
    esp8266.o(i.ESP8266_Reset) refers to esp8266.o(i.ESP8266_SendCommand) for ESP8266_SendCommand
    esp8266.o(i.ESP8266_Reset) refers to esp8266.o(i.ESP8266_WaitForResponse) for ESP8266_WaitForResponse
    esp8266.o(i.ESP8266_Reset) refers to esp8266.o(.constdata) for ESP8266_READY_RESPONSE
    esp8266.o(i.ESP8266_Restore) refers to esp8266.o(i.ESP8266_SendCommand) for ESP8266_SendCommand
    esp8266.o(i.ESP8266_Restore) refers to esp8266.o(i.ESP8266_WaitForResponse) for ESP8266_WaitForResponse
    esp8266.o(i.ESP8266_Restore) refers to esp8266.o(.constdata) for ESP8266_READY_RESPONSE
    esp8266.o(i.ESP8266_Send) refers to strlen.o(.text) for strlen
    esp8266.o(i.ESP8266_Send) refers to printf1.o(i.__0sprintf$1) for __2sprintf
    esp8266.o(i.ESP8266_Send) refers to esp8266.o(i.ESP8266_SendCommand) for ESP8266_SendCommand
    esp8266.o(i.ESP8266_Send) refers to esp8266.o(i.ESP8266_WaitForResponse) for ESP8266_WaitForResponse
    esp8266.o(i.ESP8266_Send) refers to esp8266.o(.data) for ESP8266_ConnectionMux
    esp8266.o(i.ESP8266_Send) refers to esp8266.o(.constdata) for ESP8266_ERROR_RESPONSE
    esp8266.o(i.ESP8266_SendBuffered) refers to strlen.o(.text) for strlen
    esp8266.o(i.ESP8266_SendBuffered) refers to printf1.o(i.__0sprintf$1) for __2sprintf
    esp8266.o(i.ESP8266_SendBuffered) refers to esp8266.o(i.ESP8266_SendCommand) for ESP8266_SendCommand
    esp8266.o(i.ESP8266_SendBuffered) refers to esp8266.o(i.ESP8266_WaitForResponse) for ESP8266_WaitForResponse
    esp8266.o(i.ESP8266_SendBuffered) refers to esp8266.o(.data) for ESP8266_ConnectionMux
    esp8266.o(i.ESP8266_SendBuffered) refers to esp8266.o(.constdata) for ESP8266_ERROR_RESPONSE
    esp8266.o(i.ESP8266_SendBufferedStatus) refers to printf1.o(i.__0sprintf$1) for __2sprintf
    esp8266.o(i.ESP8266_SendBufferedStatus) refers to esp8266.o(i.ESP8266_WaitForResponse) for ESP8266_WaitForResponse
    esp8266.o(i.ESP8266_SendBufferedStatus) refers to esp8266.o(.data) for ESP8266_ConnectionMux
    esp8266.o(i.ESP8266_SendCommand) refers to esp8266.o(i.ESP8266_OutChar) for ESP8266_OutChar
    esp8266.o(i.ESP8266_SetConnectionMux) refers to printf1.o(i.__0sprintf$1) for __2sprintf
    esp8266.o(i.ESP8266_SetConnectionMux) refers to esp8266.o(i.ESP8266_SendCommand) for ESP8266_SendCommand
    esp8266.o(i.ESP8266_SetConnectionMux) refers to esp8266.o(i.ESP8266_WaitForResponse) for ESP8266_WaitForResponse
    esp8266.o(i.ESP8266_SetConnectionMux) refers to esp8266.o(.constdata) for ESP8266_OK_RESPONSE
    esp8266.o(i.ESP8266_SetConnectionMux) refers to esp8266.o(.data) for ESP8266_ConnectionMux
    esp8266.o(i.ESP8266_SetDataTransmissionMode) refers to printf1.o(i.__0sprintf$1) for __2sprintf
    esp8266.o(i.ESP8266_SetDataTransmissionMode) refers to esp8266.o(i.ESP8266_SendCommand) for ESP8266_SendCommand
    esp8266.o(i.ESP8266_SetDataTransmissionMode) refers to esp8266.o(i.ESP8266_WaitForResponse) for ESP8266_WaitForResponse
    esp8266.o(i.ESP8266_SetDataTransmissionMode) refers to esp8266.o(.constdata) for ESP8266_OK_RESPONSE
    esp8266.o(i.ESP8266_SetServerTimeout) refers to printf1.o(i.__0sprintf$1) for __2sprintf
    esp8266.o(i.ESP8266_SetServerTimeout) refers to esp8266.o(i.ESP8266_SendCommand) for ESP8266_SendCommand
    esp8266.o(i.ESP8266_SetServerTimeout) refers to esp8266.o(i.ESP8266_WaitForResponse) for ESP8266_WaitForResponse
    esp8266.o(i.ESP8266_SetServerTimeout) refers to esp8266.o(.constdata) for ESP8266_ERROR_RESPONSE
    esp8266.o(i.ESP8266_SetWifiMode) refers to printf1.o(i.__0sprintf$1) for __2sprintf
    esp8266.o(i.ESP8266_SetWifiMode) refers to esp8266.o(i.ESP8266_SendCommand) for ESP8266_SendCommand
    esp8266.o(i.ESP8266_SetWifiMode) refers to esp8266.o(i.ESP8266_WaitForResponse) for ESP8266_WaitForResponse
    esp8266.o(i.ESP8266_SetWifiMode) refers to esp8266.o(.constdata) for ESP8266_OK_RESPONSE
    esp8266.o(i.ESP8266_StartServer) refers to esp8266.o(i.ESP8266_SetConnectionMux) for ESP8266_SetConnectionMux
    esp8266.o(i.ESP8266_StartServer) refers to esp8266.o(i.ESP8266_EnableServer) for ESP8266_EnableServer
    esp8266.o(i.ESP8266_StartServer) refers to esp8266.o(i.ESP8266_SetServerTimeout) for ESP8266_SetServerTimeout
    esp8266.o(i.ESP8266_StopServer) refers to esp8266.o(i.ESP8266_DisableServer) for ESP8266_DisableServer
    esp8266.o(i.ESP8266_StopServer) refers to esp8266.o(i.ESP8266_SetConnectionMux) for ESP8266_SetConnectionMux
    esp8266.o(i.ESP8266_WaitForConnection) refers to esp8266.o(i.ESP8266_WaitForResponse) for ESP8266_WaitForResponse
    esp8266.o(i.ESP8266_WaitForConnection) refers to esp8266.o(.data) for ESP8266_ConnectionMux
    esp8266.o(i.ESP8266_WaitForResponse) refers to esp8266.o(i.ESP8266_InChar) for ESP8266_InChar
    esp8266.o(i.ReceiveDataFilter) refers to esp8266.o(i.ESP8266Rx0Fifo_Put) for ESP8266Rx0Fifo_Put
    esp8266.o(i.ReceiveDataFilter) refers to esp8266.o(.data) for ReceiveDataState
    esp8266.o(i.ReceiveDataFilter) refers to esp8266.o(.constdata) for ReceiveDataSearchString
    esp8266.o(i.UART2_Handler) refers to esp8266.o(i.ESP8266BufferToTx) for ESP8266BufferToTx
    esp8266.o(i.UART2_Handler) refers to esp8266.o(i.ESP8266TxFifo_Size) for ESP8266TxFifo_Size
    esp8266.o(i.UART2_Handler) refers to esp8266.o(i.ESP8266RxToBuffer) for ESP8266RxToBuffer
    interrupt.o(i.IntDisable) refers to interrupt.o(.constdata) for g_pui32Dii16Regs
    interrupt.o(i.IntEnable) refers to interrupt.o(.constdata) for g_pui32EnRegs
    interrupt.o(i.IntIsEnabled) refers to interrupt.o(.constdata) for g_pui32EnRegs
    interrupt.o(i.IntMasterDisable) refers to cpu.o(.emb_text) for CPUcpsid
    interrupt.o(i.IntMasterEnable) refers to cpu.o(.emb_text) for CPUcpsie
    interrupt.o(i.IntPendClear) refers to interrupt.o(.constdata) for g_pui32UnpendRegs
    interrupt.o(i.IntPendSet) refers to interrupt.o(.constdata) for g_pui32PendRegs
    interrupt.o(i.IntPriorityGet) refers to interrupt.o(.constdata) for g_pui32Regs
    interrupt.o(i.IntPriorityGroupingGet) refers to interrupt.o(.constdata) for g_pui32Priority
    interrupt.o(i.IntPriorityGroupingSet) refers to interrupt.o(.constdata) for g_pui32Priority
    interrupt.o(i.IntPriorityMaskGet) refers to cpu.o(.emb_text) for CPUbasepriGet
    interrupt.o(i.IntPriorityMaskSet) refers to cpu.o(.emb_text) for CPUbasepriSet
    interrupt.o(i.IntPrioritySet) refers to interrupt.o(.constdata) for g_pui32Regs
    interrupt.o(i.IntRegister) refers to interrupt.o(vtable) for g_pfnRAMVectors
    interrupt.o(i.IntUnregister) refers to interrupt.o(i._IntDefaultHandler) for _IntDefaultHandler
    interrupt.o(i.IntUnregister) refers to interrupt.o(vtable) for g_pfnRAMVectors
    timer5a.o(i.Timer5A_Handler) refers to timer5a.o(.data) for PeriodicTask5
    timer5a.o(i.Timer5A_Init) refers to timer5a.o(.data) for PeriodicTask5
    entry.o(.ARM.Collect$$$$00000000) refers (Special) to entry10a.o(.ARM.Collect$$$$0000000F) for __rt_final_cpp
    entry.o(.ARM.Collect$$$$00000000) refers (Special) to entry11a.o(.ARM.Collect$$$$00000011) for __rt_final_exit
    entry.o(.ARM.Collect$$$$00000000) refers (Special) to entry12b.o(.ARM.Collect$$$$0000000E) for __rt_lib_shutdown_fini
    entry.o(.ARM.Collect$$$$00000000) refers (Special) to entry7b.o(.ARM.Collect$$$$00000008) for _main_clock
    entry.o(.ARM.Collect$$$$00000000) refers (Special) to entry8b.o(.ARM.Collect$$$$0000000A) for _main_cpp_init
    entry.o(.ARM.Collect$$$$00000000) refers (Special) to entry9a.o(.ARM.Collect$$$$0000000B) for _main_init
    entry.o(.ARM.Collect$$$$00000000) refers (Special) to entry5.o(.ARM.Collect$$$$00000004) for _main_scatterload
    entry.o(.ARM.Collect$$$$00000000) refers (Special) to entry2.o(.ARM.Collect$$$$00000001) for _main_stk
    strtok.o(.text) refers to strtok.o(.data) for .data
    strtok_r.o(.text) refers to strtok_r.o(.data) for .data
    printfb.o(i.__0fprintf$bare) refers to printfb.o(i._printf_core) for _printf_core
    printfb.o(i.__0fprintf$bare) refers to os.o(i.fputc) for fputc
    printfb.o(i.__0printf$bare) refers to printfb.o(i._printf_core) for _printf_core
    printfb.o(i.__0printf$bare) refers to os.o(i.fputc) for fputc
    printfb.o(i.__0printf$bare) refers to stdout.o(.data) for __stdout
    printfb.o(i.__0snprintf$bare) refers to printfb.o(i._printf_core) for _printf_core
    printfb.o(i.__0snprintf$bare) refers to printfb.o(i._snputc) for _snputc
    printfb.o(i.__0sprintf$bare) refers to printfb.o(i._printf_core) for _printf_core
    printfb.o(i.__0sprintf$bare) refers to printfb.o(i._sputc) for _sputc
    printfb.o(i.__0vfprintf$bare) refers to printfb.o(i._printf_core) for _printf_core
    printfb.o(i.__0vfprintf$bare) refers to os.o(i.fputc) for fputc
    printfb.o(i.__0vprintf$bare) refers to printfb.o(i._printf_core) for _printf_core
    printfb.o(i.__0vprintf$bare) refers to os.o(i.fputc) for fputc
    printfb.o(i.__0vprintf$bare) refers to stdout.o(.data) for __stdout
    printfb.o(i.__0vsnprintf$bare) refers to printfb.o(i._printf_core) for _printf_core
    printfb.o(i.__0vsnprintf$bare) refers to printfb.o(i._snputc) for _snputc
    printfb.o(i.__0vsprintf$bare) refers to printfb.o(i._printf_core) for _printf_core
    printfb.o(i.__0vsprintf$bare) refers to printfb.o(i._sputc) for _sputc
    printf0.o(i.__0fprintf$0) refers to printf0.o(i._printf_core) for _printf_core
    printf0.o(i.__0fprintf$0) refers to os.o(i.fputc) for fputc
    printf0.o(i.__0printf$0) refers to printf0.o(i._printf_core) for _printf_core
    printf0.o(i.__0printf$0) refers to os.o(i.fputc) for fputc
    printf0.o(i.__0printf$0) refers to stdout.o(.data) for __stdout
    printf0.o(i.__0snprintf$0) refers to printf0.o(i._printf_core) for _printf_core
    printf0.o(i.__0snprintf$0) refers to printf0.o(i._snputc) for _snputc
    printf0.o(i.__0sprintf$0) refers to printf0.o(i._printf_core) for _printf_core
    printf0.o(i.__0sprintf$0) refers to printf0.o(i._sputc) for _sputc
    printf0.o(i.__0vfprintf$0) refers to printf0.o(i._printf_core) for _printf_core
    printf0.o(i.__0vfprintf$0) refers to os.o(i.fputc) for fputc
    printf0.o(i.__0vprintf$0) refers to printf0.o(i._printf_core) for _printf_core
    printf0.o(i.__0vprintf$0) refers to os.o(i.fputc) for fputc
    printf0.o(i.__0vprintf$0) refers to stdout.o(.data) for __stdout
    printf0.o(i.__0vsnprintf$0) refers to printf0.o(i._printf_core) for _printf_core
    printf0.o(i.__0vsnprintf$0) refers to printf0.o(i._snputc) for _snputc
    printf0.o(i.__0vsprintf$0) refers to printf0.o(i._printf_core) for _printf_core
    printf0.o(i.__0vsprintf$0) refers to printf0.o(i._sputc) for _sputc
    printf1.o(i.__0fprintf$1) refers to printf1.o(i._printf_core) for _printf_core
    printf1.o(i.__0fprintf$1) refers to os.o(i.fputc) for fputc
    printf1.o(i.__0printf$1) refers to printf1.o(i._printf_core) for _printf_core
    printf1.o(i.__0printf$1) refers to os.o(i.fputc) for fputc
    printf1.o(i.__0printf$1) refers to stdout.o(.data) for __stdout
    printf1.o(i.__0snprintf$1) refers to printf1.o(i._printf_core) for _printf_core
    printf1.o(i.__0snprintf$1) refers to printf1.o(i._snputc) for _snputc
    printf1.o(i.__0sprintf$1) refers to printf1.o(i._printf_core) for _printf_core
    printf1.o(i.__0sprintf$1) refers to printf1.o(i._sputc) for _sputc
    printf1.o(i.__0vfprintf$1) refers to printf1.o(i._printf_core) for _printf_core
    printf1.o(i.__0vfprintf$1) refers to os.o(i.fputc) for fputc
    printf1.o(i.__0vprintf$1) refers to printf1.o(i._printf_core) for _printf_core
    printf1.o(i.__0vprintf$1) refers to os.o(i.fputc) for fputc
    printf1.o(i.__0vprintf$1) refers to stdout.o(.data) for __stdout
    printf1.o(i.__0vsnprintf$1) refers to printf1.o(i._printf_core) for _printf_core
    printf1.o(i.__0vsnprintf$1) refers to printf1.o(i._snputc) for _snputc
    printf1.o(i.__0vsprintf$1) refers to printf1.o(i._printf_core) for _printf_core
    printf1.o(i.__0vsprintf$1) refers to printf1.o(i._sputc) for _sputc
    printf1.o(i._printf_core) refers to uidiv.o(.text) for __aeabi_uidivmod
    printf2.o(i.__0fprintf$2) refers to printf2.o(i._printf_core) for _printf_core
    printf2.o(i.__0fprintf$2) refers to os.o(i.fputc) for fputc
    printf2.o(i.__0printf$2) refers to printf2.o(i._printf_core) for _printf_core
    printf2.o(i.__0printf$2) refers to os.o(i.fputc) for fputc
    printf2.o(i.__0printf$2) refers to stdout.o(.data) for __stdout
    printf2.o(i.__0snprintf$2) refers to printf2.o(i._printf_core) for _printf_core
    printf2.o(i.__0snprintf$2) refers to printf2.o(i._snputc) for _snputc
    printf2.o(i.__0sprintf$2) refers to printf2.o(i._printf_core) for _printf_core
    printf2.o(i.__0sprintf$2) refers to printf2.o(i._sputc) for _sputc
    printf2.o(i.__0vfprintf$2) refers to printf2.o(i._printf_core) for _printf_core
    printf2.o(i.__0vfprintf$2) refers to os.o(i.fputc) for fputc
    printf2.o(i.__0vprintf$2) refers to printf2.o(i._printf_core) for _printf_core
    printf2.o(i.__0vprintf$2) refers to os.o(i.fputc) for fputc
    printf2.o(i.__0vprintf$2) refers to stdout.o(.data) for __stdout
    printf2.o(i.__0vsnprintf$2) refers to printf2.o(i._printf_core) for _printf_core
    printf2.o(i.__0vsnprintf$2) refers to printf2.o(i._snputc) for _snputc
    printf2.o(i.__0vsprintf$2) refers to printf2.o(i._printf_core) for _printf_core
    printf2.o(i.__0vsprintf$2) refers to printf2.o(i._sputc) for _sputc
    printf3.o(i.__0fprintf$3) refers to printf3.o(i._printf_core) for _printf_core
    printf3.o(i.__0fprintf$3) refers to os.o(i.fputc) for fputc
    printf3.o(i.__0printf$3) refers to printf3.o(i._printf_core) for _printf_core
    printf3.o(i.__0printf$3) refers to os.o(i.fputc) for fputc
    printf3.o(i.__0printf$3) refers to stdout.o(.data) for __stdout
    printf3.o(i.__0snprintf$3) refers to printf3.o(i._printf_core) for _printf_core
    printf3.o(i.__0snprintf$3) refers to printf3.o(i._snputc) for _snputc
    printf3.o(i.__0sprintf$3) refers to printf3.o(i._printf_core) for _printf_core
    printf3.o(i.__0sprintf$3) refers to printf3.o(i._sputc) for _sputc
    printf3.o(i.__0vfprintf$3) refers to printf3.o(i._printf_core) for _printf_core
    printf3.o(i.__0vfprintf$3) refers to os.o(i.fputc) for fputc
    printf3.o(i.__0vprintf$3) refers to printf3.o(i._printf_core) for _printf_core
    printf3.o(i.__0vprintf$3) refers to os.o(i.fputc) for fputc
    printf3.o(i.__0vprintf$3) refers to stdout.o(.data) for __stdout
    printf3.o(i.__0vsnprintf$3) refers to printf3.o(i._printf_core) for _printf_core
    printf3.o(i.__0vsnprintf$3) refers to printf3.o(i._snputc) for _snputc
    printf3.o(i.__0vsprintf$3) refers to printf3.o(i._printf_core) for _printf_core
    printf3.o(i.__0vsprintf$3) refers to printf3.o(i._sputc) for _sputc
    printf3.o(i._printf_core) refers to uidiv.o(.text) for __aeabi_uidivmod
    printf4.o(i.__0fprintf$4) refers to printf4.o(i._printf_core) for _printf_core
    printf4.o(i.__0fprintf$4) refers to os.o(i.fputc) for fputc
    printf4.o(i.__0printf$4) refers to printf4.o(i._printf_core) for _printf_core
    printf4.o(i.__0printf$4) refers to os.o(i.fputc) for fputc
    printf4.o(i.__0printf$4) refers to stdout.o(.data) for __stdout
    printf4.o(i.__0snprintf$4) refers to printf4.o(i._printf_core) for _printf_core
    printf4.o(i.__0snprintf$4) refers to printf4.o(i._snputc) for _snputc
    printf4.o(i.__0sprintf$4) refers to printf4.o(i._printf_core) for _printf_core
    printf4.o(i.__0sprintf$4) refers to printf4.o(i._sputc) for _sputc
    printf4.o(i.__0vfprintf$4) refers to printf4.o(i._printf_core) for _printf_core
    printf4.o(i.__0vfprintf$4) refers to os.o(i.fputc) for fputc
    printf4.o(i.__0vprintf$4) refers to printf4.o(i._printf_core) for _printf_core
    printf4.o(i.__0vprintf$4) refers to os.o(i.fputc) for fputc
    printf4.o(i.__0vprintf$4) refers to stdout.o(.data) for __stdout
    printf4.o(i.__0vsnprintf$4) refers to printf4.o(i._printf_core) for _printf_core
    printf4.o(i.__0vsnprintf$4) refers to printf4.o(i._snputc) for _snputc
    printf4.o(i.__0vsprintf$4) refers to printf4.o(i._printf_core) for _printf_core
    printf4.o(i.__0vsprintf$4) refers to printf4.o(i._sputc) for _sputc
    printf4.o(i._printf_core) refers to uldiv.o(.text) for __aeabi_uldivmod
    printf5.o(i.__0fprintf$5) refers to printf5.o(i._printf_core) for _printf_core
    printf5.o(i.__0fprintf$5) refers to os.o(i.fputc) for fputc
    printf5.o(i.__0printf$5) refers to printf5.o(i._printf_core) for _printf_core
    printf5.o(i.__0printf$5) refers to os.o(i.fputc) for fputc
    printf5.o(i.__0printf$5) refers to stdout.o(.data) for __stdout
    printf5.o(i.__0snprintf$5) refers to printf5.o(i._printf_core) for _printf_core
    printf5.o(i.__0snprintf$5) refers to printf5.o(i._snputc) for _snputc
    printf5.o(i.__0sprintf$5) refers to printf5.o(i._printf_core) for _printf_core
    printf5.o(i.__0sprintf$5) refers to printf5.o(i._sputc) for _sputc
    printf5.o(i.__0vfprintf$5) refers to printf5.o(i._printf_core) for _printf_core
    printf5.o(i.__0vfprintf$5) refers to os.o(i.fputc) for fputc
    printf5.o(i.__0vprintf$5) refers to printf5.o(i._printf_core) for _printf_core
    printf5.o(i.__0vprintf$5) refers to os.o(i.fputc) for fputc
    printf5.o(i.__0vprintf$5) refers to stdout.o(.data) for __stdout
    printf5.o(i.__0vsnprintf$5) refers to printf5.o(i._printf_core) for _printf_core
    printf5.o(i.__0vsnprintf$5) refers to printf5.o(i._snputc) for _snputc
    printf5.o(i.__0vsprintf$5) refers to printf5.o(i._printf_core) for _printf_core
    printf5.o(i.__0vsprintf$5) refers to printf5.o(i._sputc) for _sputc
    printf5.o(i._printf_core) refers to uldiv.o(.text) for __aeabi_uldivmod
    printf6.o(i.__0fprintf$6) refers to printf6.o(i._printf_core) for _printf_core
    printf6.o(i.__0fprintf$6) refers to os.o(i.fputc) for fputc
    printf6.o(i.__0printf$6) refers to printf6.o(i._printf_core) for _printf_core
    printf6.o(i.__0printf$6) refers to os.o(i.fputc) for fputc
    printf6.o(i.__0printf$6) refers to stdout.o(.data) for __stdout
    printf6.o(i.__0snprintf$6) refers to printf6.o(i._printf_core) for _printf_core
    printf6.o(i.__0snprintf$6) refers to printf6.o(i._snputc) for _snputc
    printf6.o(i.__0sprintf$6) refers to printf6.o(i._printf_core) for _printf_core
    printf6.o(i.__0sprintf$6) refers to printf6.o(i._sputc) for _sputc
    printf6.o(i.__0vfprintf$6) refers to printf6.o(i._printf_core) for _printf_core
    printf6.o(i.__0vfprintf$6) refers to os.o(i.fputc) for fputc
    printf6.o(i.__0vprintf$6) refers to printf6.o(i._printf_core) for _printf_core
    printf6.o(i.__0vprintf$6) refers to os.o(i.fputc) for fputc
    printf6.o(i.__0vprintf$6) refers to stdout.o(.data) for __stdout
    printf6.o(i.__0vsnprintf$6) refers to printf6.o(i._printf_core) for _printf_core
    printf6.o(i.__0vsnprintf$6) refers to printf6.o(i._snputc) for _snputc
    printf6.o(i.__0vsprintf$6) refers to printf6.o(i._printf_core) for _printf_core
    printf6.o(i.__0vsprintf$6) refers to printf6.o(i._sputc) for _sputc
    printf6.o(i._printf_core) refers to printf6.o(i._printf_pre_padding) for _printf_pre_padding
    printf6.o(i._printf_core) refers to uidiv.o(.text) for __aeabi_uidivmod
    printf6.o(i._printf_core) refers to printf6.o(i._printf_post_padding) for _printf_post_padding
    printf7.o(i.__0fprintf$7) refers to printf7.o(i._printf_core) for _printf_core
    printf7.o(i.__0fprintf$7) refers to os.o(i.fputc) for fputc
    printf7.o(i.__0printf$7) refers to printf7.o(i._printf_core) for _printf_core
    printf7.o(i.__0printf$7) refers to os.o(i.fputc) for fputc
    printf7.o(i.__0printf$7) refers to stdout.o(.data) for __stdout
    printf7.o(i.__0snprintf$7) refers to printf7.o(i._printf_core) for _printf_core
    printf7.o(i.__0snprintf$7) refers to printf7.o(i._snputc) for _snputc
    printf7.o(i.__0sprintf$7) refers to printf7.o(i._printf_core) for _printf_core
    printf7.o(i.__0sprintf$7) refers to printf7.o(i._sputc) for _sputc
    printf7.o(i.__0vfprintf$7) refers to printf7.o(i._printf_core) for _printf_core
    printf7.o(i.__0vfprintf$7) refers to os.o(i.fputc) for fputc
    printf7.o(i.__0vprintf$7) refers to printf7.o(i._printf_core) for _printf_core
    printf7.o(i.__0vprintf$7) refers to os.o(i.fputc) for fputc
    printf7.o(i.__0vprintf$7) refers to stdout.o(.data) for __stdout
    printf7.o(i.__0vsnprintf$7) refers to printf7.o(i._printf_core) for _printf_core
    printf7.o(i.__0vsnprintf$7) refers to printf7.o(i._snputc) for _snputc
    printf7.o(i.__0vsprintf$7) refers to printf7.o(i._printf_core) for _printf_core
    printf7.o(i.__0vsprintf$7) refers to printf7.o(i._sputc) for _sputc
    printf7.o(i._printf_core) refers to printf7.o(i._printf_pre_padding) for _printf_pre_padding
    printf7.o(i._printf_core) refers to uldiv.o(.text) for __aeabi_uldivmod
    printf7.o(i._printf_core) refers to printf7.o(i._printf_post_padding) for _printf_post_padding
    printf8.o(i.__0fprintf$8) refers to printf8.o(i._printf_core) for _printf_core
    printf8.o(i.__0fprintf$8) refers to os.o(i.fputc) for fputc
    printf8.o(i.__0printf$8) refers to printf8.o(i._printf_core) for _printf_core
    printf8.o(i.__0printf$8) refers to os.o(i.fputc) for fputc
    printf8.o(i.__0printf$8) refers to stdout.o(.data) for __stdout
    printf8.o(i.__0snprintf$8) refers to printf8.o(i._printf_core) for _printf_core
    printf8.o(i.__0snprintf$8) refers to printf8.o(i._snputc) for _snputc
    printf8.o(i.__0sprintf$8) refers to printf8.o(i._printf_core) for _printf_core
    printf8.o(i.__0sprintf$8) refers to printf8.o(i._sputc) for _sputc
    printf8.o(i.__0vfprintf$8) refers to printf8.o(i._printf_core) for _printf_core
    printf8.o(i.__0vfprintf$8) refers to os.o(i.fputc) for fputc
    printf8.o(i.__0vprintf$8) refers to printf8.o(i._printf_core) for _printf_core
    printf8.o(i.__0vprintf$8) refers to os.o(i.fputc) for fputc
    printf8.o(i.__0vprintf$8) refers to stdout.o(.data) for __stdout
    printf8.o(i.__0vsnprintf$8) refers to printf8.o(i._printf_core) for _printf_core
    printf8.o(i.__0vsnprintf$8) refers to printf8.o(i._snputc) for _snputc
    printf8.o(i.__0vsprintf$8) refers to printf8.o(i._printf_core) for _printf_core
    printf8.o(i.__0vsprintf$8) refers to printf8.o(i._sputc) for _sputc
    printf8.o(i._printf_core) refers to printf8.o(i._printf_pre_padding) for _printf_pre_padding
    printf8.o(i._printf_core) refers to uldiv.o(.text) for __aeabi_uldivmod
    printf8.o(i._printf_core) refers to printf8.o(i._printf_post_padding) for _printf_post_padding
    printfa.o(i.__0fprintf) refers (Special) to iusefp.o(.text) for __I$use$fp
    printfa.o(i.__0fprintf) refers to printfa.o(i._printf_core) for _printf_core
    printfa.o(i.__0fprintf) refers to os.o(i.fputc) for fputc
    printfa.o(i.__0printf) refers (Special) to iusefp.o(.text) for __I$use$fp
    printfa.o(i.__0printf) refers to printfa.o(i._printf_core) for _printf_core
    printfa.o(i.__0printf) refers to os.o(i.fputc) for fputc
    printfa.o(i.__0printf) refers to stdout.o(.data) for __stdout
    printfa.o(i.__0snprintf) refers (Special) to iusefp.o(.text) for __I$use$fp
    printfa.o(i.__0snprintf) refers to printfa.o(i._printf_core) for _printf_core
    printfa.o(i.__0snprintf) refers to printfa.o(i._snputc) for _snputc
    printfa.o(i.__0sprintf) refers (Special) to iusefp.o(.text) for __I$use$fp
    printfa.o(i.__0sprintf) refers to printfa.o(i._printf_core) for _printf_core
    printfa.o(i.__0sprintf) refers to printfa.o(i._sputc) for _sputc
    printfa.o(i.__0vfprintf) refers (Special) to iusefp.o(.text) for __I$use$fp
    printfa.o(i.__0vfprintf) refers to printfa.o(i._printf_core) for _printf_core
    printfa.o(i.__0vfprintf) refers to os.o(i.fputc) for fputc
    printfa.o(i.__0vprintf) refers (Special) to iusefp.o(.text) for __I$use$fp
    printfa.o(i.__0vprintf) refers to printfa.o(i._printf_core) for _printf_core
    printfa.o(i.__0vprintf) refers to os.o(i.fputc) for fputc
    printfa.o(i.__0vprintf) refers to stdout.o(.data) for __stdout
    printfa.o(i.__0vsnprintf) refers (Special) to iusefp.o(.text) for __I$use$fp
    printfa.o(i.__0vsnprintf) refers to printfa.o(i._printf_core) for _printf_core
    printfa.o(i.__0vsnprintf) refers to printfa.o(i._snputc) for _snputc
    printfa.o(i.__0vsprintf) refers (Special) to iusefp.o(.text) for __I$use$fp
    printfa.o(i.__0vsprintf) refers to printfa.o(i._printf_core) for _printf_core
    printfa.o(i.__0vsprintf) refers to printfa.o(i._sputc) for _sputc
    printfa.o(i._fp_digits) refers (Special) to iusefp.o(.text) for __I$use$fp
    printfa.o(i._fp_digits) refers to dmul.o(.text) for __aeabi_dmul
    printfa.o(i._fp_digits) refers to ddiv.o(.text) for __aeabi_ddiv
    printfa.o(i._fp_digits) refers to cdrcmple.o(.text) for __aeabi_cdrcmple
    printfa.o(i._fp_digits) refers to dadd.o(.text) for __aeabi_dadd
    printfa.o(i._fp_digits) refers to dfixul.o(.text) for __aeabi_d2ulz
    printfa.o(i._fp_digits) refers to uldiv.o(.text) for __aeabi_uldivmod
    printfa.o(i._printf_core) refers (Special) to iusefp.o(.text) for __I$use$fp
    printfa.o(i._printf_core) refers to printfa.o(i._printf_pre_padding) for _printf_pre_padding
    printfa.o(i._printf_core) refers to uldiv.o(.text) for __aeabi_uldivmod
    printfa.o(i._printf_core) refers to printfa.o(i._printf_post_padding) for _printf_post_padding
    printfa.o(i._printf_core) refers to printfa.o(i._fp_digits) for _fp_digits
    printfa.o(i._printf_core) refers to uidiv.o(.text) for __aeabi_uidivmod
    printfa.o(i._printf_post_padding) refers (Special) to iusefp.o(.text) for __I$use$fp
    printfa.o(i._printf_pre_padding) refers (Special) to iusefp.o(.text) for __I$use$fp
    printfa.o(i._snputc) refers (Special) to iusefp.o(.text) for __I$use$fp
    printfa.o(i._sputc) refers (Special) to iusefp.o(.text) for __I$use$fp
    strtol.o(.text) refers to ctype_o.o(.text) for __rt_ctype_table
    strtol.o(.text) refers to _strtoul.o(.text) for _strtoul
    strtol.o(.text) refers to errno.o(i.__aeabi_errno_addr) for __aeabi_errno_addr
    atol.o(.text) refers to errno.o(i.__aeabi_errno_addr) for __aeabi_errno_addr
    atol.o(.text) refers to strtol.o(.text) for strtol
    entry2.o(.ARM.Collect$$$$00000001) refers to entry2.o(.ARM.Collect$$$$00002712) for __lit__00000000
    entry2.o(.ARM.Collect$$$$00002712) refers to startup.o(STACK) for __initial_sp
    entry2.o(__vectab_stack_and_reset_area) refers to startup.o(STACK) for __initial_sp
    entry2.o(__vectab_stack_and_reset_area) refers to entry.o(.ARM.Collect$$$$00000000) for __main
    entry5.o(.ARM.Collect$$$$00000004) refers to init.o(.text) for __scatterload
    entry9a.o(.ARM.Collect$$$$0000000B) refers to lab6.o(i.main) for main
    entry9b.o(.ARM.Collect$$$$0000000C) refers to lab6.o(i.main) for main
    uldiv.o(.text) refers to llushr.o(.text) for __aeabi_llsr
    uldiv.o(.text) refers to llshl.o(.text) for __aeabi_llsl
    ctype_o.o(.text) refers to ctype_o.o(.constdata) for .constdata
    ctype_o.o(.constdata) refers to ctype_o.o(.constdata) for __ctype_table
    isalnum_o.o(.text) refers to ctype_o.o(.text) for __rt_ctype_table
    isalpha_o.o(.text) refers to ctype_o.o(.text) for __rt_ctype_table
    isblank_o.o(.text) refers to ctype_o.o(.constdata) for __ctype_table
    iscntrl_o.o(.text) refers to ctype_o.o(.text) for __rt_ctype_table
    isdigit_o.o(.text) refers to ctype_o.o(.text) for __rt_ctype_table
    isgraph_o.o(.text) refers to ctype_o.o(.text) for __rt_ctype_table
    islower_o.o(.text) refers to ctype_o.o(.text) for __rt_ctype_table
    isprint_o.o(.text) refers to ctype_o.o(.text) for __rt_ctype_table
    ispunct_o.o(.text) refers to ctype_o.o(.text) for __rt_ctype_table
    isspace_o.o(.text) refers to ctype_o.o(.text) for __rt_ctype_table
    isupper_o.o(.text) refers to ctype_o.o(.text) for __rt_ctype_table
    isxdigit_o.o(.text) refers to ctype_o.o(.text) for __rt_ctype_table
    errno.o(i.__aeabi_errno_addr) refers to errno.o(.data) for .data
    errno.o(i.__read_errno) refers to errno.o(.data) for .data
    errno.o(i.__set_errno) refers to errno.o(.data) for .data
    _strtoul.o(.text) refers to _chval.o(.text) for _chval
    _strtoul.o(.text) refers to errno.o(i.__aeabi_errno_addr) for __aeabi_errno_addr
    dadd.o(.text) refers to llshl.o(.text) for __aeabi_llsl
    dadd.o(.text) refers to llsshr.o(.text) for __aeabi_lasr
    dadd.o(.text) refers to depilogue.o(.text) for _double_epilogue
    dmul.o(.text) refers to depilogue.o(.text) for _double_epilogue
    ddiv.o(.text) refers to depilogue.o(.text) for _double_round
    dfixul.o(.text) refers to llushr.o(.text) for __aeabi_llsr
    dfixul.o(.text) refers to llshl.o(.text) for __aeabi_llsl
    init.o(.text) refers to entry5.o(.ARM.Collect$$$$00000004) for __main_after_scatterload
    depilogue.o(.text) refers to llshl.o(.text) for __aeabi_llsl
    depilogue.o(.text) refers to llushr.o(.text) for __aeabi_llsr


==============================================================================

Removing Unused input sections from the image.

    Removing startup.o(HEAP), (0 bytes).
    Removing launchpad.o(i.DelayMs), (32 bytes).
    Removing launchpad.o(i.LaunchPad_Init), (92 bytes).
    Removing launchpad.o(i.LaunchPad_Input), (24 bytes).
    Removing launchpad.o(i.LaunchPad_Output), (12 bytes).
    Removing launchpad.o(i.LaunchPad_WaitForRelease), (56 bytes).
    Removing launchpad.o(i.LaunchPad_WaitForTouch), (32 bytes).
    Removing lab6.o(i.ButtonWork1), (48 bytes).
    Removing lab6.o(i.CANReceiveTask), (120 bytes).
    Removing lab6.o(i.CANSendTask), (64 bytes).
    Removing lab6.o(i.ConnectWifi), (160 bytes).
    Removing lab6.o(i.FetchWeather), (580 bytes).
    Removing lab6.o(i.HTTP_ServePage), (100 bytes).
    Removing lab6.o(i.SW1Push1), (48 bytes).
    Removing lab6.o(i.SW1Push2), (52 bytes).
    Removing lab6.o(i.ServeHTTPRequest), (424 bytes).
    Removing lab6.o(i.Testmain0), (108 bytes).
    Removing lab6.o(i.Testmain1), (120 bytes).
    Removing lab6.o(i.Testmain2), (108 bytes).
    Removing lab6.o(i.Testmain3), (96 bytes).
    Removing lab6.o(i.Thread1), (40 bytes).
    Removing lab6.o(i.Thread2), (40 bytes).
    Removing lab6.o(i.Thread3), (40 bytes).
    Removing lab6.o(i.WebServer), (248 bytes).
    Removing lab6.o(.bss), (64 bytes).
    Removing lab6.o(.constdata), (441 bytes).
    Removing lab6.o(.conststring), (78 bytes).
    Removing os.o(i.OS_AddSW1Task), (212 bytes).
    Removing os.o(i.OS_AddSW2Task), (6 bytes).
    Removing os.o(i.OS_Fifo_Get), (88 bytes).
    Removing os.o(i.OS_Fifo_Init), (48 bytes).
    Removing os.o(i.OS_Fifo_Put), (64 bytes).
    Removing os.o(i.OS_Fifo_Size), (4 bytes).
    Removing os.o(i.OS_LockScheduler), (4 bytes).
    Removing os.o(i.OS_MailBox_Init), (20 bytes).
    Removing os.o(i.OS_MailBox_Recv), (28 bytes).
    Removing os.o(i.OS_MailBox_Send), (28 bytes).
    Removing os.o(i.OS_RedirectToFile), (36 bytes).
    Removing os.o(i.OS_RedirectToST7735), (4 bytes).
    Removing os.o(i.OS_RedirectToUART), (12 bytes).
    Removing os.o(i.OS_Suspend), (8 bytes).
    Removing os.o(i.OS_TimeDifference), (12 bytes).
    Removing os.o(i.OS_UnLockScheduler), (2 bytes).
    Removing os.o(i.OS_bSignal), (6 bytes).
    Removing os.o(i.OS_bWait), (34 bytes).
    Removing os.o(i.fgetc), (20 bytes).
    Removing os.o(.constdata), (4 bytes).
    Removing st7735.o(i.ST7735_DrawBitmap), (288 bytes).
    Removing st7735.o(i.ST7735_DrawChar), (272 bytes).
    Removing st7735.o(i.ST7735_DrawCircle), (168 bytes).
    Removing st7735.o(i.ST7735_DrawFastHLine), (124 bytes).
    Removing st7735.o(i.ST7735_DrawFastVLine), (124 bytes).
    Removing st7735.o(i.ST7735_DrawSmallCircle), (168 bytes).
    Removing st7735.o(i.ST7735_InitB), (52 bytes).
    Removing st7735.o(i.ST7735_InvertDisplay), (22 bytes).
    Removing st7735.o(i.ST7735_OutString), (24 bytes).
    Removing st7735.o(i.ST7735_OutUDec2), (80 bytes).
    Removing st7735.o(i.ST7735_OutUDec4), (140 bytes).
    Removing st7735.o(i.ST7735_OutUDec5), (140 bytes).
    Removing st7735.o(i.ST7735_PlotBar), (88 bytes).
    Removing st7735.o(i.ST7735_PlotClear), (92 bytes).
    Removing st7735.o(i.ST7735_PlotLine), (264 bytes).
    Removing st7735.o(i.ST7735_PlotNext), (32 bytes).
    Removing st7735.o(i.ST7735_PlotNextErase), (64 bytes).
    Removing st7735.o(i.ST7735_PlotPoint), (152 bytes).
    Removing st7735.o(i.ST7735_PlotPoints), (172 bytes).
    Removing st7735.o(i.ST7735_PlotdBfs), (60 bytes).
    Removing st7735.o(i.ST7735_SetRotation), (212 bytes).
    Removing st7735.o(i.ST7735_SetTextColor), (12 bytes).
    Removing st7735.o(i.ST7735_SwapColor), (18 bytes).
    Removing st7735.o(i.fillmessage4), (100 bytes).
    Removing st7735.o(i.fillmessage5), (128 bytes).
    Removing uart0int.o(i.Fixed_Fix2Str), (252 bytes).
    Removing uart0int.o(i.UART_Fix2), (20 bytes).
    Removing uart0int.o(i.UART_InCharNonBlock), (20 bytes).
    Removing uart0int.o(i.UART_InUDec), (76 bytes).
    Removing uart0int.o(i.UART_InUHex), (108 bytes).
    Removing uart0int.o(i.UART_OutSDec), (24 bytes).
    Removing uart0int.o(i.UART_OutUHex), (52 bytes).
    Removing efile.o(i.PrintDir), (88 bytes).
    Removing efile.o(i.eFile_DClose), (4 bytes).
    Removing efile.o(i.eFile_DOpen), (6 bytes).
    Removing efile.o(i.eFile_DirNext), (6 bytes).
    Removing ff.o(i.dir_read), (112 bytes).
    Removing ff.o(i.dir_remove), (54 bytes).
    Removing ff.o(i.f_chdir), (84 bytes).
    Removing ff.o(i.f_chmod), (96 bytes).
    Removing ff.o(i.f_closedir), (22 bytes).
    Removing ff.o(i.f_getcwd), (274 bytes).
    Removing ff.o(i.f_getfree), (258 bytes).
    Removing ff.o(i.f_getlabel), (190 bytes).
    Removing ff.o(i.f_mkdir), (364 bytes).
    Removing ff.o(i.f_mkfs), (1608 bytes).
    Removing ff.o(i.f_mount), (92 bytes).
    Removing ff.o(i.f_opendir), (110 bytes).
    Removing ff.o(i.f_readdir), (88 bytes).
    Removing ff.o(i.f_rename), (270 bytes).
    Removing ff.o(i.f_setlabel), (488 bytes).
    Removing ff.o(i.f_stat), (60 bytes).
    Removing ff.o(i.f_truncate), (184 bytes).
    Removing ff.o(i.f_unlink), (190 bytes).
    Removing ff.o(i.f_utime), (98 bytes).
    Removing ff.o(i.f_write), (472 bytes).
    Removing ff.o(i.get_fileinfo), (116 bytes).
    Removing ff.o(.constdata), (44 bytes).
    Removing adct0atrigger.o(i.ADC0_InitTimer0ATriggerSeq0), (1120 bytes).
    Removing adct0atrigger.o(i.ADC0_InitTimer0ATriggerSeq3PD3), (296 bytes).
    Removing adct0atrigger.o(i.dummyADC), (2 bytes).
    Removing adcswtrigger.o(i.ADC0_InSeq2), (80 bytes).
    Removing adcswtrigger.o(i.ADC0_InSeq3), (44 bytes).
    Removing adcswtrigger.o(i.ADC0_InSeq3_InternalTemperature), (64 bytes).
    Removing adcswtrigger.o(i.ADC0_InitSWTriggerSeq2), (224 bytes).
    Removing adcswtrigger.o(i.ADC0_InitSWTriggerSeq3), (1016 bytes).
    Removing adcswtrigger.o(i.ADC0_InitSWTriggerSeq3_Ch7), (248 bytes).
    Removing adcswtrigger.o(i.ADC0_InitSWTriggerSeq3_Ch9), (248 bytes).
    Removing adcswtrigger.o(i.ADC0_InitSWTriggerSeq3_InternalTemperature), (128 bytes).
    Removing adcswtrigger.o(i.ADC_In3210), (80 bytes).
    Removing adcswtrigger.o(i.ADC_In89), (56 bytes).
    Removing adcswtrigger.o(i.ADC_Init3210), (248 bytes).
    Removing adcswtrigger.o(i.ADC_Init89), (220 bytes).
    Removing adcswtrigger.o(.data), (4 bytes).
    Removing cr4_fft_64_stm32.o(.text), (718 bytes).
    Removing pid_stm32.o(.text), (72 bytes).
    Removing lpf.o(i.Filter), (200 bytes).
    Removing lpf.o(i.LPF_Calc), (92 bytes).
    Removing lpf.o(i.LPF_Calc2), (92 bytes).
    Removing lpf.o(i.LPF_Calc3), (92 bytes).
    Removing lpf.o(i.LPF_Calc4), (92 bytes).
    Removing lpf.o(i.LPF_Calc5), (92 bytes).
    Removing lpf.o(i.LPF_Calc6), (92 bytes).
    Removing lpf.o(i.LPF_Calc7), (92 bytes).
    Removing lpf.o(i.LPF_Init), (72 bytes).
    Removing lpf.o(i.LPF_Init2), (72 bytes).
    Removing lpf.o(i.LPF_Init3), (72 bytes).
    Removing lpf.o(i.LPF_Init4), (72 bytes).
    Removing lpf.o(i.LPF_Init5), (72 bytes).
    Removing lpf.o(i.LPF_Init6), (72 bytes).
    Removing lpf.o(i.LPF_Init7), (72 bytes).
    Removing lpf.o(i.Median), (128 bytes).
    Removing lpf.o(i.Noise), (136 bytes).
    Removing lpf.o(i.Noise2), (136 bytes).
    Removing lpf.o(i.Noise3), (136 bytes).
    Removing lpf.o(i.Noise4), (136 bytes).
    Removing lpf.o(i.Noise5), (136 bytes).
    Removing lpf.o(i.Noise6), (136 bytes).
    Removing lpf.o(i.Noise7), (136 bytes).
    Removing lpf.o(i.sqrt2), (32 bytes).
    Removing lpf.o(.bss), (496 bytes).
    Removing lpf.o(.data), (156 bytes).
    Removing irdistance.o(i.IRDistance_Convert), (64 bytes).
    Removing irdistance.o(.constdata), (64 bytes).
    Removing wtimer0a.o(i.WideTimer0_Stop), (24 bytes).
    Removing heap.o(i.Heap_Calloc), (200 bytes).
    Removing heap.o(i.Heap_Realloc), (114 bytes).
    Removing heap.o(i.Heap_Stats), (112 bytes).
    Removing loader.o(i.LOADER_WRITE), (30 bytes).
    Removing can.o(i.CANDisable), (24 bytes).
    Removing can.o(i.CANErrCntrGet), (46 bytes).
    Removing can.o(i.CANIntDisable), (26 bytes).
    Removing can.o(i.CANIntRegister), (30 bytes).
    Removing can.o(i.CANIntUnregister), (26 bytes).
    Removing can.o(i.CANMessageClear), (68 bytes).
    Removing can.o(i.CANRetryGet), (24 bytes).
    Removing can.o(i.CANRetrySet), (36 bytes).
    Removing can0.o(i.CAN0_CheckMail), (12 bytes).
    Removing can0.o(i.CAN0_GetMail), (52 bytes).
    Removing can0.o(i.CAN0_GetMailNonBlock), (56 bytes).
    Removing can0.o(i.CAN0_SendData), (36 bytes).
    Removing esp8266.o(i.ESP8266_ConfigureAccessPoint), (124 bytes).
    Removing esp8266.o(i.ESP8266_DisableServer), (72 bytes).
    Removing esp8266.o(i.ESP8266_EnableServer), (84 bytes).
    Removing esp8266.o(i.ESP8266_GetStatus), (56 bytes).
    Removing esp8266.o(i.ESP8266_QuitAccessPoint), (52 bytes).
    Removing esp8266.o(i.ESP8266_Restore), (56 bytes).
    Removing esp8266.o(i.ESP8266_SendBuffered), (204 bytes).
    Removing esp8266.o(i.ESP8266_SendBufferedStatus), (164 bytes).
    Removing esp8266.o(i.ESP8266_SetConnectionMux), (80 bytes).
    Removing esp8266.o(i.ESP8266_SetDataTransmissionMode), (72 bytes).
    Removing esp8266.o(i.ESP8266_SetServerTimeout), (76 bytes).
    Removing esp8266.o(i.ESP8266_StartServer), (46 bytes).
    Removing esp8266.o(i.ESP8266_StopServer), (28 bytes).
    Removing esp8266.o(i.ESP8266_WaitForConnection), (60 bytes).
    Removing esp8266.o(i.lc), (14 bytes).
    Removing interrupt.o(i.IntIsEnabled), (108 bytes).
    Removing interrupt.o(i.IntMasterDisable), (16 bytes).
    Removing interrupt.o(i.IntMasterEnable), (16 bytes).
    Removing interrupt.o(i.IntPendClear), (76 bytes).
    Removing interrupt.o(i.IntPendSet), (96 bytes).
    Removing interrupt.o(i.IntPriorityGet), (28 bytes).
    Removing interrupt.o(i.IntPriorityGroupingGet), (44 bytes).
    Removing interrupt.o(i.IntPriorityGroupingSet), (28 bytes).
    Removing interrupt.o(i.IntPriorityMaskGet), (8 bytes).
    Removing interrupt.o(i.IntPriorityMaskSet), (12 bytes).
    Removing interrupt.o(i.IntPrioritySet), (52 bytes).
    Removing interrupt.o(i.IntRegister), (60 bytes).
    Removing interrupt.o(i.IntTrigger), (16 bytes).
    Removing interrupt.o(i.IntUnregister), (20 bytes).
    Removing interrupt.o(i._IntDefaultHandler), (4 bytes).
    Removing interrupt.o(vtable), (620 bytes).
    Removing cpu.o(.emb_text), (38 bytes).
    Removing timer5a.o(i.Timer5_Stop), (24 bytes).
    Removing dadd.o(.text), (334 bytes).
    Removing dmul.o(.text), (228 bytes).
    Removing ddiv.o(.text), (222 bytes).
    Removing dfixul.o(.text), (48 bytes).
    Removing cdrcmple.o(.text), (48 bytes).
    Removing depilogue.o(.text), (186 bytes).

207 unused section(s) (total 25337 bytes) removed from the image.

==============================================================================

Image Symbol Table

    Local Symbols

    Symbol Name                              Value     Ov Type        Size  Object(Section)

    RESET                                    0x00000000   Section      644  startup.o(RESET)
    ../clib/../cmprslib/zerorunl.c           0x00000000   Number         0  __dczerorl.o ABSOLUTE
    ../clib/microlib/ctype/ctype.c           0x00000000   Number         0  isupper_o.o ABSOLUTE
    ../clib/microlib/ctype/ctype.c           0x00000000   Number         0  ctype_o.o ABSOLUTE
    ../clib/microlib/ctype/ctype.c           0x00000000   Number         0  isxdigit_o.o ABSOLUTE
    ../clib/microlib/ctype/ctype.c           0x00000000   Number         0  isblank_o.o ABSOLUTE
    ../clib/microlib/ctype/ctype.c           0x00000000   Number         0  isalpha_o.o ABSOLUTE
    ../clib/microlib/ctype/ctype.c           0x00000000   Number         0  isalnum_o.o ABSOLUTE
    ../clib/microlib/ctype/ctype.c           0x00000000   Number         0  isspace_o.o ABSOLUTE
    ../clib/microlib/ctype/ctype.c           0x00000000   Number         0  ispunct_o.o ABSOLUTE
    ../clib/microlib/ctype/ctype.c           0x00000000   Number         0  isprint_o.o ABSOLUTE
    ../clib/microlib/ctype/ctype.c           0x00000000   Number         0  islower_o.o ABSOLUTE
    ../clib/microlib/ctype/ctype.c           0x00000000   Number         0  isgraph_o.o ABSOLUTE
    ../clib/microlib/ctype/ctype.c           0x00000000   Number         0  isdigit_o.o ABSOLUTE
    ../clib/microlib/ctype/ctype.c           0x00000000   Number         0  iscntrl_o.o ABSOLUTE
    ../clib/microlib/division.c              0x00000000   Number         0  uldiv.o ABSOLUTE
    ../clib/microlib/division.c              0x00000000   Number         0  uidiv.o ABSOLUTE
    ../clib/microlib/errno.c                 0x00000000   Number         0  errno.o ABSOLUTE
    ../clib/microlib/init/entry.s            0x00000000   Number         0  entry9b.o ABSOLUTE
    ../clib/microlib/init/entry.s            0x00000000   Number         0  entry5.o ABSOLUTE
    ../clib/microlib/init/entry.s            0x00000000   Number         0  entry7a.o ABSOLUTE
    ../clib/microlib/init/entry.s            0x00000000   Number         0  entry10b.o ABSOLUTE
    ../clib/microlib/init/entry.s            0x00000000   Number         0  entry7b.o ABSOLUTE
    ../clib/microlib/init/entry.s            0x00000000   Number         0  entry.o ABSOLUTE
    ../clib/microlib/init/entry.s            0x00000000   Number         0  entry11a.o ABSOLUTE
    ../clib/microlib/init/entry.s            0x00000000   Number         0  entry8a.o ABSOLUTE
    ../clib/microlib/init/entry.s            0x00000000   Number         0  entry8b.o ABSOLUTE
    ../clib/microlib/init/entry.s            0x00000000   Number         0  entry9a.o ABSOLUTE
    ../clib/microlib/init/entry.s            0x00000000   Number         0  entry2.o ABSOLUTE
    ../clib/microlib/init/entry.s            0x00000000   Number         0  entry10a.o ABSOLUTE
    ../clib/microlib/init/entry.s            0x00000000   Number         0  entry12b.o ABSOLUTE
    ../clib/microlib/init/entry.s            0x00000000   Number         0  entry12a.o ABSOLUTE
    ../clib/microlib/init/entry.s            0x00000000   Number         0  entry11b.o ABSOLUTE
    ../clib/microlib/longlong.c              0x00000000   Number         0  llsshr.o ABSOLUTE
    ../clib/microlib/longlong.c              0x00000000   Number         0  llushr.o ABSOLUTE
    ../clib/microlib/longlong.c              0x00000000   Number         0  llshl.o ABSOLUTE
    ../clib/microlib/printf/printf.c         0x00000000   Number         0  printf7.o ABSOLUTE
    ../clib/microlib/printf/printf.c         0x00000000   Number         0  printf6.o ABSOLUTE
    ../clib/microlib/printf/printf.c         0x00000000   Number         0  printf5.o ABSOLUTE
    ../clib/microlib/printf/printf.c         0x00000000   Number         0  printf4.o ABSOLUTE
    ../clib/microlib/printf/printf.c         0x00000000   Number         0  printf3.o ABSOLUTE
    ../clib/microlib/printf/printf.c         0x00000000   Number         0  printf0.o ABSOLUTE
    ../clib/microlib/printf/printf.c         0x00000000   Number         0  printf1.o ABSOLUTE
    ../clib/microlib/printf/printf.c         0x00000000   Number         0  printfb.o ABSOLUTE
    ../clib/microlib/printf/printf.c         0x00000000   Number         0  printf2.o ABSOLUTE
    ../clib/microlib/printf/printf.c         0x00000000   Number         0  printfa.o ABSOLUTE
    ../clib/microlib/printf/printf.c         0x00000000   Number         0  printf8.o ABSOLUTE
    ../clib/microlib/printf/stubs.s          0x00000000   Number         0  stubs.o ABSOLUTE
    ../clib/microlib/stdio/streams.c         0x00000000   Number         0  stdout.o ABSOLUTE
    ../clib/microlib/string/memcmp.c         0x00000000   Number         0  memcmp.o ABSOLUTE
    ../clib/microlib/string/memcpy.c         0x00000000   Number         0  memcpya.o ABSOLUTE
    ../clib/microlib/string/memcpy.c         0x00000000   Number         0  memcpyb.o ABSOLUTE
    ../clib/microlib/string/strcat.c         0x00000000   Number         0  strcat.o ABSOLUTE
    ../clib/microlib/string/strchr.c         0x00000000   Number         0  strchr.o ABSOLUTE
    ../clib/microlib/string/strcmp.c         0x00000000   Number         0  strcmp.o ABSOLUTE
    ../clib/microlib/string/strcpy.c         0x00000000   Number         0  strcpy.o ABSOLUTE
    ../clib/microlib/string/strlen.c         0x00000000   Number         0  strlen.o ABSOLUTE
    ../clib/microlib/string/strncmp.c        0x00000000   Number         0  strncmp.o ABSOLUTE
    ../clib/microlib/string/strstr.c         0x00000000   Number         0  strstr.o ABSOLUTE
    ../clib/microlib/string/strtok.c         0x00000000   Number         0  strtok_r.o ABSOLUTE
    ../clib/microlib/string/strtok.c         0x00000000   Number         0  strtok.o ABSOLUTE
    ../clib/microlib/stubs.s                 0x00000000   Number         0  iusefp.o ABSOLUTE
    ../clib/scanf.c                          0x00000000   Number         0  _chval.o ABSOLUTE
    ../clib/scanf.c                          0x00000000   Number         0  strtol.o ABSOLUTE
    ../clib/scanf.c                          0x00000000   Number         0  atol.o ABSOLUTE
    ../clib/scanf.c                          0x00000000   Number         0  _strtoul.o ABSOLUTE
    ../fplib/microlib/fpadd.c                0x00000000   Number         0  dadd.o ABSOLUTE
    ../fplib/microlib/fpdiv.c                0x00000000   Number         0  ddiv.o ABSOLUTE
    ../fplib/microlib/fpepilogue.c           0x00000000   Number         0  depilogue.o ABSOLUTE
    ../fplib/microlib/fpfix.c                0x00000000   Number         0  dfixul.o ABSOLUTE
    ../fplib/microlib/fpmul.c                0x00000000   Number         0  dmul.o ABSOLUTE
    ..\RTOS_Labs_common\ADC.c                0x00000000   Number         0  adc.o ABSOLUTE
    ..\RTOS_Labs_common\Interpreter.c        0x00000000   Number         0  interpreter.o ABSOLUTE
    ..\RTOS_Labs_common\OS.c                 0x00000000   Number         0  os.o ABSOLUTE
    ..\RTOS_Labs_common\ST7735.c             0x00000000   Number         0  st7735.o ABSOLUTE
    ..\RTOS_Labs_common\UART0int.c           0x00000000   Number         0  uart0int.o ABSOLUTE
    ..\RTOS_Labs_common\can0.c               0x00000000   Number         0  can0.o ABSOLUTE
    ..\RTOS_Labs_common\eDisk.c              0x00000000   Number         0  edisk.o ABSOLUTE
    ..\RTOS_Labs_common\esp8266.c            0x00000000   Number         0  esp8266.o ABSOLUTE
    ..\RTOS_Labs_common\heap.c               0x00000000   Number         0  heap.o ABSOLUTE
    ..\RTOS_Labs_common\osasm.s              0x00000000   Number         0  osasm.o ABSOLUTE
    ..\\driverlib\\cpu.c                     0x00000000   Number         0  cpu.o ABSOLUTE
    ..\driverlib\cpu.c                       0x00000000   Number         0  cpu.o ABSOLUTE
    ..\driverlib\interrupt.c                 0x00000000   Number         0  interrupt.o ABSOLUTE
    ..\inc\ADCSWTrigger.c                    0x00000000   Number         0  adcswtrigger.o ABSOLUTE
    ..\inc\ADCT0ATrigger.c                   0x00000000   Number         0  adct0atrigger.o ABSOLUTE
    ..\inc\IRDistance.c                      0x00000000   Number         0  irdistance.o ABSOLUTE
    ..\inc\LPF.c                             0x00000000   Number         0  lpf.o ABSOLUTE
    ..\inc\LaunchPad.c                       0x00000000   Number         0  launchpad.o ABSOLUTE
    ..\inc\PID_stm32.s                       0x00000000   Number         0  pid_stm32.o ABSOLUTE
    ..\inc\PLL.c                             0x00000000   Number         0  pll.o ABSOLUTE
    ..\inc\Timer5A.c                         0x00000000   Number         0  timer5a.o ABSOLUTE
    ..\inc\WTimer0A.c                        0x00000000   Number         0  wtimer0a.o ABSOLUTE
    ..\inc\can.c                             0x00000000   Number         0  can.o ABSOLUTE
    ..\inc\cr4_fft_64_stm32.s                0x00000000   Number         0  cr4_fft_64_stm32.o ABSOLUTE
    Lab6.c                                   0x00000000   Number         0  lab6.o ABSOLUTE
    cdrcmple.s                               0x00000000   Number         0  cdrcmple.o ABSOLUTE
    dc.s                                     0x00000000   Number         0  dc.o ABSOLUTE
    eFile.c                                  0x00000000   Number         0  efile.o ABSOLUTE
    ff.c                                     0x00000000   Number         0  ff.o ABSOLUTE
    handlers.s                               0x00000000   Number         0  handlers.o ABSOLUTE
    init.s                                   0x00000000   Number         0  init.o ABSOLUTE
    loader.c                                 0x00000000   Number         0  loader.o ABSOLUTE
    startup.s                                0x00000000   Number         0  startup.o ABSOLUTE
    .ARM.Collect$$$$00000000                 0x00000284   Section        0  entry.o(.ARM.Collect$$$$00000000)
    .ARM.Collect$$$$00000001                 0x00000284   Section        4  entry2.o(.ARM.Collect$$$$00000001)
    .ARM.Collect$$$$00000004                 0x00000288   Section        4  entry5.o(.ARM.Collect$$$$00000004)
    .ARM.Collect$$$$00000008                 0x0000028c   Section        0  entry7b.o(.ARM.Collect$$$$00000008)
    .ARM.Collect$$$$0000000A                 0x0000028c   Section        0  entry8b.o(.ARM.Collect$$$$0000000A)
    .ARM.Collect$$$$0000000B                 0x0000028c   Section        8  entry9a.o(.ARM.Collect$$$$0000000B)
    .ARM.Collect$$$$0000000E                 0x00000294   Section        4  entry12b.o(.ARM.Collect$$$$0000000E)
    .ARM.Collect$$$$0000000F                 0x00000298   Section        0  entry10a.o(.ARM.Collect$$$$0000000F)
    .ARM.Collect$$$$00000011                 0x00000298   Section        0  entry11a.o(.ARM.Collect$$$$00000011)
    .ARM.Collect$$$$00002712                 0x00000298   Section        4  entry2.o(.ARM.Collect$$$$00002712)
    __lit__00000000                          0x00000298   Data           4  entry2.o(.ARM.Collect$$$$00002712)
    .text                                    0x0000029c   Section       28  startup.o(.text)
    .text                                    0x000002b8   Section      184  osasm.o(.text)
    .text                                    0x00000370   Section        0  memcpya.o(.text)
    .text                                    0x00000394   Section        0  strcat.o(.text)
    .text                                    0x000003ac   Section        0  strlen.o(.text)
    .text                                    0x000003ba   Section        0  strcmp.o(.text)
    .text                                    0x000003d6   Section        0  memcmp.o(.text)
    .text                                    0x000003f0   Section        0  strcpy.o(.text)
    .text                                    0x00000404   Section        0  strtok.o(.text)
    .text                                    0x00000448   Section        0  strtol.o(.text)
    .text                                    0x000004b8   Section        0  uidiv.o(.text)
    .text                                    0x000004e4   Section        0  ctype_o.o(.text)
    .text                                    0x000004ec   Section        0  _strtoul.o(.text)
    .text                                    0x0000058c   Section       36  init.o(.text)
    .text                                    0x000005b0   Section        0  _chval.o(.text)
    .text                                    0x000005cc   Section        0  __dczerorl.o(.text)
    i.ADC0Seq0_Handler                       0x00000608   Section        0  adct0atrigger.o(i.ADC0Seq0_Handler)
    i.ADC0Seq3_Handler                       0x0000062c   Section        0  adct0atrigger.o(i.ADC0Seq3_Handler)
    i.ADC_In                                 0x00000648   Section        0  adc.o(i.ADC_In)
    i.ADC_Init                               0x00000674   Section        0  adc.o(i.ADC_Init)
    i.Buck_Fun                               0x00000a58   Section        0  lab6.o(i.Buck_Fun)
    i.CAN0_Handler                           0x00000b04   Section        0  can0.o(i.CAN0_Handler)
    i.CAN0_Open                              0x00000b8c   Section        0  can0.o(i.CAN0_Open)
    i.CAN0_Setup_Message_Object              0x00000c70   Section        0  can0.o(i.CAN0_Setup_Message_Object)
    CAN0_Setup_Message_Object                0x00000c71   Thumb Code    44  can0.o(i.CAN0_Setup_Message_Object)
    i.CANBitRateSet                          0x00000ca0   Section        0  can.o(i.CANBitRateSet)
    i.CANDataRegRead                         0x00000d34   Section        0  can.o(i.CANDataRegRead)
    CANDataRegRead                           0x00000d35   Thumb Code    54  can.o(i.CANDataRegRead)
    i.CANDataRegWrite                        0x00000d6a   Section        0  can.o(i.CANDataRegWrite)
    CANDataRegWrite                          0x00000d6b   Thumb Code    54  can.o(i.CANDataRegWrite)
    i.CANEnable                              0x00000da0   Section        0  can.o(i.CANEnable)
    i.CANInit                                0x00000db8   Section        0  can.o(i.CANInit)
    i.CANIntClear                            0x00000e52   Section        0  can.o(i.CANIntClear)
    i.CANIntEnable                           0x00000ea2   Section        0  can.o(i.CANIntEnable)
    i.CANIntNumberGet                        0x00000ebc   Section        0  can.o(i.CANIntNumberGet)
    CANIntNumberGet                          0x00000ebd   Thumb Code    34  can.o(i.CANIntNumberGet)
    i.CANIntStatus                           0x00000ee4   Section        0  can.o(i.CANIntStatus)
    i.CANMessageGet                          0x00000f20   Section        0  can.o(i.CANMessageGet)
    i.CANMessageSet                          0x000010d6   Section        0  can.o(i.CANMessageSet)
    i.CANRegRead                             0x0000128c   Section        0  can.o(i.CANRegRead)
    CANRegRead                               0x0000128d   Thumb Code    72  can.o(i.CANRegRead)
    i.CANRegWrite                            0x000012d8   Section        0  can.o(i.CANRegWrite)
    CANRegWrite                              0x000012d9   Thumb Code    24  can.o(i.CANRegWrite)
    i.CANStatusGet                           0x000012f0   Section        0  can.o(i.CANStatusGet)
    i.CS_Init                                0x0000136c   Section        0  edisk.o(i.CS_Init)
    i.Client                                 0x000013f8   Section        0  interpreter.o(i.Client)
    i.ClientSend                             0x00001b08   Section        0  interpreter.o(i.ClientSend)
    i.Delay1ms                               0x00001b8c   Section        0  st7735.o(i.Delay1ms)
    i.DelayMs                                0x00001bac   Section        0  esp8266.o(i.DelayMs)
    i.ESP8266BufferToTx                      0x00001bcc   Section        0  esp8266.o(i.ESP8266BufferToTx)
    ESP8266BufferToTx                        0x00001bcd   Thumb Code    52  esp8266.o(i.ESP8266BufferToTx)
    i.ESP8266Rx0Fifo_Get                     0x00001c08   Section        0  esp8266.o(i.ESP8266Rx0Fifo_Get)
    i.ESP8266Rx0Fifo_Init                    0x00001c44   Section        0  esp8266.o(i.ESP8266Rx0Fifo_Init)
    i.ESP8266Rx0Fifo_Put                     0x00001c58   Section        0  esp8266.o(i.ESP8266Rx0Fifo_Put)
    i.ESP8266Rx0Fifo_Size                    0x00001c94   Section        0  esp8266.o(i.ESP8266Rx0Fifo_Size)
    i.ESP8266RxFifo_Get                      0x00001cac   Section        0  esp8266.o(i.ESP8266RxFifo_Get)
    i.ESP8266RxFifo_Init                     0x00001ce8   Section        0  esp8266.o(i.ESP8266RxFifo_Init)
    i.ESP8266RxFifo_Put                      0x00001cfc   Section        0  esp8266.o(i.ESP8266RxFifo_Put)
    i.ESP8266RxFifo_Size                     0x00001d38   Section        0  esp8266.o(i.ESP8266RxFifo_Size)
    i.ESP8266RxToBuffer                      0x00001d50   Section        0  esp8266.o(i.ESP8266RxToBuffer)
    ESP8266RxToBuffer                        0x00001d51   Thumb Code    60  esp8266.o(i.ESP8266RxToBuffer)
    i.ESP8266TxFifo_Get                      0x00001d94   Section        0  esp8266.o(i.ESP8266TxFifo_Get)
    i.ESP8266TxFifo_Init                     0x00001dd0   Section        0  esp8266.o(i.ESP8266TxFifo_Init)
    i.ESP8266TxFifo_Put                      0x00001de4   Section        0  esp8266.o(i.ESP8266TxFifo_Put)
    i.ESP8266TxFifo_Size                     0x00001e20   Section        0  esp8266.o(i.ESP8266TxFifo_Size)
    i.ESP8266_CloseTCPConnection             0x00001e38   Section        0  esp8266.o(i.ESP8266_CloseTCPConnection)
    i.ESP8266_Connect                        0x00001e9c   Section        0  esp8266.o(i.ESP8266_Connect)
    i.ESP8266_DisableInterrupt               0x00001f08   Section        0  esp8266.o(i.ESP8266_DisableInterrupt)
    i.ESP8266_EnableInterrupt                0x00001f14   Section        0  esp8266.o(i.ESP8266_EnableInterrupt)
    i.ESP8266_GetIPAddress                   0x00001f38   Section        0  esp8266.o(i.ESP8266_GetIPAddress)
    i.ESP8266_GetMACAddress                  0x00001f70   Section        0  esp8266.o(i.ESP8266_GetMACAddress)
    i.ESP8266_GetVersionNumber               0x00001fa8   Section        0  esp8266.o(i.ESP8266_GetVersionNumber)
    i.ESP8266_InChar                         0x00001fdc   Section        0  esp8266.o(i.ESP8266_InChar)
    i.ESP8266_Init                           0x00001ff0   Section        0  esp8266.o(i.ESP8266_Init)
    i.ESP8266_InitUART                       0x000020c8   Section        0  esp8266.o(i.ESP8266_InitUART)
    i.ESP8266_JoinAccessPoint                0x000021cc   Section        0  esp8266.o(i.ESP8266_JoinAccessPoint)
    i.ESP8266_ListAccessPoints               0x00002228   Section        0  esp8266.o(i.ESP8266_ListAccessPoints)
    i.ESP8266_MakeTCPConnection              0x00002260   Section        0  esp8266.o(i.ESP8266_MakeTCPConnection)
    i.ESP8266_OutChar                        0x000022d8   Section        0  esp8266.o(i.ESP8266_OutChar)
    i.ESP8266_Receive                        0x0000230c   Section        0  esp8266.o(i.ESP8266_Receive)
    i.ESP8266_Reset                          0x000023c0   Section        0  esp8266.o(i.ESP8266_Reset)
    i.ESP8266_Send                           0x000023f4   Section        0  esp8266.o(i.ESP8266_Send)
    i.ESP8266_SendCommand                    0x0000248c   Section        0  esp8266.o(i.ESP8266_SendCommand)
    i.ESP8266_SetWifiMode                    0x000024a8   Section        0  esp8266.o(i.ESP8266_SetWifiMode)
    i.ESP8266_WaitForResponse                0x000024f0   Section        0  esp8266.o(i.ESP8266_WaitForResponse)
    i.GPIOPortF_Handler                      0x0000255c   Section        0  os.o(i.GPIOPortF_Handler)
    i.Heap_Free                              0x00002574   Section        0  heap.o(i.Heap_Free)
    i.Heap_Init                              0x00002620   Section        0  heap.o(i.Heap_Init)
    i.Heap_Malloc                            0x00002670   Section        0  heap.o(i.Heap_Malloc)
    i.Idle                                   0x00002724   Section        0  lab6.o(i.Idle)
    i.Init                                   0x00002740   Section        0  lab6.o(i.Init)
    i.IntDisable                             0x000027a4   Section        0  interrupt.o(i.IntDisable)
    i.IntEnable                              0x00002818   Section        0  interrupt.o(i.IntEnable)
    i.Interpreter                            0x0000288c   Section        0  interpreter.o(i.Interpreter)
    i.Jitter                                 0x000031f4   Section        0  interpreter.o(i.Jitter)
    i.Judge_Free_Space                       0x000032d8   Section        0  heap.o(i.Judge_Free_Space)
    i.LOADER_CLEAR                           0x000032e6   Section        0  loader.o(i.LOADER_CLEAR)
    i.LOADER_OPEN_FOR_RD                     0x00003300   Section        0  loader.o(i.LOADER_OPEN_FOR_RD)
    i.LOADER_READ                            0x0000331c   Section        0  loader.o(i.LOADER_READ)
    i.OSTtask                                0x0000333c   Section        0  os.o(i.OSTtask)
    i.OS_AddPeriodicThread                   0x0000335c   Section        0  os.o(i.OS_AddPeriodicThread)
    i.OS_AddProcess                          0x000033c0   Section        0  os.o(i.OS_AddProcess)
    i.OS_AddThread                           0x000033cc   Section        0  os.o(i.OS_AddThread)
    i.OS_ClearMsTime                         0x000036c8   Section        0  os.o(i.OS_ClearMsTime)
    i.OS_EndRedirectToFile                   0x00003710   Section        0  os.o(i.OS_EndRedirectToFile)
    i.OS_Id                                  0x0000372c   Section        0  os.o(i.OS_Id)
    i.OS_Init                                0x00003730   Section        0  os.o(i.OS_Init)
    i.OS_InitSemaphore                       0x000037e4   Section        0  os.o(i.OS_InitSemaphore)
    i.OS_Kill                                0x000037e8   Section        0  os.o(i.OS_Kill)
    i.OS_Launch                              0x00003854   Section        0  os.o(i.OS_Launch)
    i.OS_MsTime                              0x00003888   Section        0  os.o(i.OS_MsTime)
    i.OS_Signal                              0x000038c0   Section        0  os.o(i.OS_Signal)
    i.OS_Sleep                               0x000038d8   Section        0  os.o(i.OS_Sleep)
    i.OS_Time                                0x00003924   Section        0  os.o(i.OS_Time)
    i.OS_Wait                                0x00003950   Section        0  os.o(i.OS_Wait)
    i.PLL_Init                               0x00003974   Section        0  pll.o(i.PLL_Init)
    i.PortD_Init                             0x000039f0   Section        0  lab6.o(i.PortD_Init)
    i.ReceiveDataFilter                      0x00003ae4   Section        0  esp8266.o(i.ReceiveDataFilter)
    i.RxFifo_Get                             0x00003c38   Section        0  uart0int.o(i.RxFifo_Get)
    i.RxFifo_Init                            0x00003c74   Section        0  uart0int.o(i.RxFifo_Init)
    i.RxFifo_Put                             0x00003c88   Section        0  uart0int.o(i.RxFifo_Put)
    i.RxFifo_Size                            0x00003cc4   Section        0  uart0int.o(i.RxFifo_Size)
    i.SSI0_Init                              0x00003cdc   Section        0  edisk.o(i.SSI0_Init)
    i.ST7735_Color565                        0x00003e28   Section        0  st7735.o(i.ST7735_Color565)
    i.ST7735_DrawCharS                       0x00003e40   Section        0  st7735.o(i.ST7735_DrawCharS)
    i.ST7735_DrawPixel                       0x00003f38   Section        0  st7735.o(i.ST7735_DrawPixel)
    i.ST7735_DrawString                      0x00003f80   Section        0  st7735.o(i.ST7735_DrawString)
    i.ST7735_FillRect                        0x00003fd8   Section        0  st7735.o(i.ST7735_FillRect)
    i.ST7735_FillScreen                      0x00004084   Section        0  st7735.o(i.ST7735_FillScreen)
    i.ST7735_InitR                           0x000040a8   Section        0  st7735.o(i.ST7735_InitR)
    i.ST7735_Message                         0x00004130   Section        0  st7735.o(i.ST7735_Message)
    i.ST7735_OutChar                         0x000041d8   Section        0  st7735.o(i.ST7735_OutChar)
    i.ST7735_OutUDec                         0x000042ac   Section        0  st7735.o(i.ST7735_OutUDec)
    i.ST7735_SetCursor                       0x00004338   Section        0  st7735.o(i.ST7735_SetCursor)
    i.SysTick_Handler                        0x00004358   Section        0  os.o(i.SysTick_Handler)
    i.SysTick_Init                           0x00004390   Section        0  os.o(i.SysTick_Init)
    i.Timer4A_Handler                        0x000043bc   Section        0  os.o(i.Timer4A_Handler)
    i.Timer5A_Handler                        0x000043d4   Section        0  timer5a.o(i.Timer5A_Handler)
    i.Timer5A_Init                           0x000043ec   Section        0  timer5a.o(i.Timer5A_Init)
    i.TxFifo_Get                             0x0000444c   Section        0  uart0int.o(i.TxFifo_Get)
    i.TxFifo_Init                            0x00004488   Section        0  uart0int.o(i.TxFifo_Init)
    i.TxFifo_Put                             0x0000449c   Section        0  uart0int.o(i.TxFifo_Put)
    i.TxFifo_Size                            0x000044d8   Section        0  uart0int.o(i.TxFifo_Size)
    i.UART0_Handler                          0x000044f0   Section        0  uart0int.o(i.UART0_Handler)
    i.UART2_Handler                          0x00004548   Section        0  esp8266.o(i.UART2_Handler)
    i.UART_InChar                            0x000045a0   Section        0  uart0int.o(i.UART_InChar)
    i.UART_InString                          0x000045c0   Section        0  uart0int.o(i.UART_InString)
    i.UART_Init                              0x00004608   Section        0  uart0int.o(i.UART_Init)
    i.UART_OutChar                           0x000046d0   Section        0  uart0int.o(i.UART_OutChar)
    i.UART_OutCharNonBlock                   0x0000470c   Section        0  uart0int.o(i.UART_OutCharNonBlock)
    i.UART_OutString                         0x00004740   Section        0  uart0int.o(i.UART_OutString)
    i.UART_OutUDec                           0x00004758   Section        0  uart0int.o(i.UART_OutUDec)
    i.WDTimer0A_task                         0x00004784   Section        0  os.o(i.WDTimer0A_task)
    i.WideTimer0A_Handler                    0x000047d0   Section        0  wtimer0a.o(i.WideTimer0A_Handler)
    i.WideTimer0A_Init                       0x000047e8   Section        0  wtimer0a.o(i.WideTimer0A_Init)
    i.__0printf$1                            0x0000484c   Section        0  printf1.o(i.__0printf$1)
    i.__0sprintf$1                           0x0000486c   Section        0  printf1.o(i.__0sprintf$1)
    i.__aeabi_errno_addr                     0x00004894   Section        0  errno.o(i.__aeabi_errno_addr)
    i.__scatterload_copy                     0x0000489c   Section       14  handlers.o(i.__scatterload_copy)
    i.__scatterload_null                     0x000048aa   Section        2  handlers.o(i.__scatterload_null)
    i.__scatterload_zeroinit                 0x000048ac   Section       14  handlers.o(i.__scatterload_zeroinit)
    i._printf_core                           0x000048bc   Section        0  printf1.o(i._printf_core)
    _printf_core                             0x000048bd   Thumb Code   336  printf1.o(i._printf_core)
    i._sputc                                 0x00004a10   Section        0  printf1.o(i._sputc)
    _sputc                                   0x00004a11   Thumb Code    10  printf1.o(i._sputc)
    i.addressOf                              0x00004a1a   Section        0  loader.o(i.addressOf)
    addressOf                                0x00004a1b   Thumb Code    88  loader.o(i.addressOf)
    i.check_fs                               0x00004a74   Section        0  ff.o(i.check_fs)
    check_fs                                 0x00004a75   Thumb Code   140  ff.o(i.check_fs)
    i.chk_chr                                0x00004b04   Section        0  ff.o(i.chk_chr)
    chk_chr                                  0x00004b05   Thumb Code    24  ff.o(i.chk_chr)
    i.clust2sect                             0x00004b1c   Section        0  ff.o(i.clust2sect)
    i.commandList                            0x00004b36   Section        0  st7735.o(i.commandList)
    commandList                              0x00004b37   Thumb Code    86  st7735.o(i.commandList)
    i.commonInit                             0x00004b8c   Section        0  st7735.o(i.commonInit)
    commonInit                               0x00004b8d   Thumb Code   346  st7735.o(i.commonInit)
    i.copyHardwareToSoftware                 0x00004d18   Section        0  uart0int.o(i.copyHardwareToSoftware)
    copyHardwareToSoftware                   0x00004d19   Thumb Code    46  uart0int.o(i.copyHardwareToSoftware)
    i.copySoftwareToHardware                 0x00004d50   Section        0  uart0int.o(i.copySoftwareToHardware)
    copySoftwareToHardware                   0x00004d51   Thumb Code    44  uart0int.o(i.copySoftwareToHardware)
    i.create_chain                           0x00004d84   Section        0  ff.o(i.create_chain)
    create_chain                             0x00004d85   Thumb Code   214  ff.o(i.create_chain)
    i.create_name                            0x00004e5c   Section        0  ff.o(i.create_name)
    create_name                              0x00004e5d   Thumb Code   418  ff.o(i.create_name)
    i.deselect                               0x00005010   Section        0  edisk.o(i.deselect)
    deselect                                 0x00005011   Thumb Code    16  edisk.o(i.deselect)
    i.dir_alloc                              0x00005024   Section        0  ff.o(i.dir_alloc)
    dir_alloc                                0x00005025   Thumb Code    92  ff.o(i.dir_alloc)
    i.dir_find                               0x00005080   Section        0  ff.o(i.dir_find)
    dir_find                                 0x00005081   Thumb Code    92  ff.o(i.dir_find)
    i.dir_next                               0x000050dc   Section        0  ff.o(i.dir_next)
    dir_next                                 0x000050dd   Thumb Code   272  ff.o(i.dir_next)
    i.dir_register                           0x000051ec   Section        0  ff.o(i.dir_register)
    dir_register                             0x000051ed   Thumb Code    58  ff.o(i.dir_register)
    i.dir_sdi                                0x00005226   Section        0  ff.o(i.dir_sdi)
    dir_sdi                                  0x00005227   Thumb Code   158  ff.o(i.dir_sdi)
    i.disk_ioctl                             0x000052c4   Section        0  edisk.o(i.disk_ioctl)
    i.disk_timerproc                         0x000054ec   Section        0  edisk.o(i.disk_timerproc)
    i.dumpData                               0x0000552c   Section        0  loader.o(i.dumpData)
    dumpData                                 0x0000552d   Thumb Code     2  loader.o(i.dumpData)
    i.eDisk_Init                             0x00005530   Section        0  edisk.o(i.eDisk_Init)
    i.eDisk_Read                             0x0000568c   Section        0  edisk.o(i.eDisk_Read)
    i.eDisk_ReadBlock                        0x0000571c   Section        0  edisk.o(i.eDisk_ReadBlock)
    i.eDisk_Status                           0x00005730   Section        0  edisk.o(i.eDisk_Status)
    i.eDisk_Write                            0x00005744   Section        0  edisk.o(i.eDisk_Write)
    i.eDisk_WriteBlock                       0x000057f8   Section        0  edisk.o(i.eDisk_WriteBlock)
    i.eFile_Create                           0x0000580c   Section        0  efile.o(i.eFile_Create)
    i.eFile_Delete                           0x00005870   Section        0  efile.o(i.eFile_Delete)
    i.eFile_Format                           0x00005984   Section        0  efile.o(i.eFile_Format)
    i.eFile_Init                             0x00005a60   Section        0  efile.o(i.eFile_Init)
    i.eFile_Mount                            0x00005a6c   Section        0  efile.o(i.eFile_Mount)
    i.eFile_RClose                           0x00005b64   Section        0  efile.o(i.eFile_RClose)
    i.eFile_ROpen                            0x00005ba8   Section        0  efile.o(i.eFile_ROpen)
    i.eFile_ReadNext                         0x00005c24   Section        0  efile.o(i.eFile_ReadNext)
    i.eFile_Unmount                          0x00005ce8   Section        0  efile.o(i.eFile_Unmount)
    i.eFile_WClose                           0x00005dc4   Section        0  efile.o(i.eFile_WClose)
    i.eFile_WOpen                            0x00005ec4   Section        0  efile.o(i.eFile_WOpen)
    i.eFile_Write                            0x00005f60   Section        0  efile.o(i.eFile_Write)
    i.exec_elf                               0x00006060   Section        0  loader.o(i.exec_elf)
    i.f_close                                0x00006148   Section        0  ff.o(i.f_close)
    i.f_lseek                                0x00006168   Section        0  ff.o(i.f_lseek)
    i.f_open                                 0x000062e8   Section        0  ff.o(i.f_open)
    i.f_read                                 0x0000644c   Section        0  ff.o(i.f_read)
    i.f_sync                                 0x000065ec   Section        0  ff.o(i.f_sync)
    i.fillmessage                            0x0000669c   Section        0  st7735.o(i.fillmessage)
    i.find_volume                            0x000066e4   Section        0  ff.o(i.find_volume)
    find_volume                              0x000066e5   Thumb Code   890  ff.o(i.find_volume)
    i.follow_path                            0x00006a70   Section        0  ff.o(i.follow_path)
    follow_path                              0x00006a71   Thumb Code   176  ff.o(i.follow_path)
    i.fputc                                  0x00006b20   Section        0  os.o(i.fputc)
    i.freeElf                                0x00006b50   Section        0  loader.o(i.freeElf)
    freeElf                                  0x00006b51   Thumb Code    12  loader.o(i.freeElf)
    i.freeSection                            0x00006b5c   Section        0  loader.o(i.freeSection)
    freeSection                              0x00006b5d   Thumb Code    16  loader.o(i.freeSection)
    i.freeSegment                            0x00006b6c   Section        0  loader.o(i.freeSegment)
    freeSegment                              0x00006b6d   Thumb Code    16  loader.o(i.freeSegment)
    i.get_fat                                0x00006b7c   Section        0  ff.o(i.get_fat)
    i.get_ldnumber                           0x00006c6e   Section        0  ff.o(i.get_ldnumber)
    get_ldnumber                             0x00006c6f   Thumb Code    74  ff.o(i.get_ldnumber)
    i.initElf                                0x00006cb8   Section        0  loader.o(i.initElf)
    initElf                                  0x00006cb9   Thumb Code   134  loader.o(i.initElf)
    i.init_spi                               0x00006d40   Section        0  edisk.o(i.init_spi)
    init_spi                                 0x00006d41   Thumb Code    32  edisk.o(i.init_spi)
    i.jumpTo                                 0x00006d68   Section        0  loader.o(i.jumpTo)
    jumpTo                                   0x00006d69   Thumb Code    42  loader.o(i.jumpTo)
    i.ld_clust                               0x00006db0   Section        0  ff.o(i.ld_clust)
    ld_clust                                 0x00006db1   Thumb Code    32  ff.o(i.ld_clust)
    i.loadProgram                            0x00006dd0   Section        0  loader.o(i.loadProgram)
    loadProgram                              0x00006dd1   Thumb Code   162  loader.o(i.loadProgram)
    i.loadSecData                            0x00006ebc   Section        0  loader.o(i.loadSecData)
    loadSecData                              0x00006ebd   Thumb Code   128  loader.o(i.loadSecData)
    i.loadSegData                            0x00006fa8   Section        0  loader.o(i.loadSegData)
    loadSegData                              0x00006fa9   Thumb Code   136  loader.o(i.loadSegData)
    i.loadSymbols                            0x0000709c   Section        0  loader.o(i.loadSymbols)
    loadSymbols                              0x0000709d   Thumb Code   118  loader.o(i.loadSymbols)
    i.main                                   0x00007160   Section        0  lab6.o(i.main)
    i.mem_cmp                                0x0000716a   Section        0  ff.o(i.mem_cmp)
    mem_cmp                                  0x0000716b   Thumb Code    38  ff.o(i.mem_cmp)
    i.mem_cpy                                0x00007190   Section        0  ff.o(i.mem_cpy)
    mem_cpy                                  0x00007191   Thumb Code    26  ff.o(i.mem_cpy)
    i.mem_set                                0x000071aa   Section        0  ff.o(i.mem_set)
    mem_set                                  0x000071ab   Thumb Code    20  ff.o(i.mem_set)
    i.move_window                            0x000071be   Section        0  ff.o(i.move_window)
    move_window                              0x000071bf   Thumb Code    52  ff.o(i.move_window)
    i.placeDynamic                           0x000071f2   Section        0  loader.o(i.placeDynamic)
    placeDynamic                             0x000071f3   Thumb Code   132  loader.o(i.placeDynamic)
    i.placeInfo                              0x00007278   Section        0  loader.o(i.placeInfo)
    placeInfo                                0x00007279   Thumb Code   256  loader.o(i.placeInfo)
    i.pushColor                              0x000073cc   Section        0  st7735.o(i.pushColor)
    pushColor                                0x000073cd   Thumb Code    18  st7735.o(i.pushColor)
    i.put_fat                                0x000073de   Section        0  ff.o(i.put_fat)
    i.rcvr_datablock                         0x00007520   Section        0  edisk.o(i.rcvr_datablock)
    rcvr_datablock                           0x00007521   Thumb Code    66  edisk.o(i.rcvr_datablock)
    i.rcvr_spi                               0x00007568   Section        0  edisk.o(i.rcvr_spi)
    rcvr_spi                                 0x00007569   Thumb Code    42  edisk.o(i.rcvr_spi)
    i.rcvr_spi_multi                         0x00007598   Section        0  edisk.o(i.rcvr_spi_multi)
    rcvr_spi_multi                           0x00007599   Thumb Code    24  edisk.o(i.rcvr_spi_multi)
    i.readSecHeader                          0x000075b0   Section        0  loader.o(i.readSecHeader)
    readSecHeader                            0x000075b1   Thumb Code    62  loader.o(i.readSecHeader)
    i.readSection                            0x000075ee   Section        0  loader.o(i.readSection)
    readSection                              0x000075ef   Thumb Code    58  loader.o(i.readSection)
    i.readSectionName                        0x00007628   Section        0  loader.o(i.readSectionName)
    readSectionName                          0x00007629   Thumb Code    68  loader.o(i.readSectionName)
    i.readSegHeader                          0x0000766c   Section        0  loader.o(i.readSegHeader)
    readSegHeader                            0x0000766d   Thumb Code    58  loader.o(i.readSegHeader)
    i.readSymbol                             0x000076a6   Section        0  loader.o(i.readSymbol)
    readSymbol                               0x000076a7   Thumb Code   114  loader.o(i.readSymbol)
    i.readSymbolName                         0x00007718   Section        0  loader.o(i.readSymbolName)
    readSymbolName                           0x00007719   Thumb Code    68  loader.o(i.readSymbolName)
    i.realmain                               0x0000775c   Section        0  lab6.o(i.realmain)
    i.relJmpCall                             0x0000780c   Section        0  loader.o(i.relJmpCall)
    relJmpCall                               0x0000780d   Thumb Code   170  loader.o(i.relJmpCall)
    i.relocate                               0x000078b8   Section        0  loader.o(i.relocate)
    relocate                                 0x000078b9   Thumb Code   170  loader.o(i.relocate)
    i.relocateProgram                        0x00007984   Section        0  loader.o(i.relocateProgram)
    relocateProgram                          0x00007985   Thumb Code    32  loader.o(i.relocateProgram)
    i.relocateSection                        0x000079c4   Section        0  loader.o(i.relocateSection)
    relocateSection                          0x000079c5   Thumb Code    66  loader.o(i.relocateSection)
    i.relocateSections                       0x00007a48   Section        0  loader.o(i.relocateSections)
    relocateSections                         0x00007a49   Thumb Code    48  loader.o(i.relocateSections)
    i.relocateSymbol                         0x00007a90   Section        0  loader.o(i.relocateSymbol)
    relocateSymbol                           0x00007a91   Thumb Code    56  loader.o(i.relocateSymbol)
    i.remove_chain                           0x00007ac8   Section        0  ff.o(i.remove_chain)
    remove_chain                             0x00007ac9   Thumb Code   108  ff.o(i.remove_chain)
    i.sectionOf                              0x00007b34   Section        0  loader.o(i.sectionOf)
    sectionOf                                0x00007b35   Thumb Code    70  loader.o(i.sectionOf)
    i.select                                 0x00007b7c   Section        0  edisk.o(i.select)
    select                                   0x00007b7d   Thumb Code    44  edisk.o(i.select)
    i.send_cmd                               0x00007bac   Section        0  edisk.o(i.send_cmd)
    send_cmd                                 0x00007bad   Thumb Code   150  edisk.o(i.send_cmd)
    i.setAddrWindow                          0x00007c44   Section        0  st7735.o(i.setAddrWindow)
    setAddrWindow                            0x00007c45   Thumb Code   106  st7735.o(i.setAddrWindow)
    i.st_clust                               0x00007cb8   Section        0  ff.o(i.st_clust)
    st_clust                                 0x00007cb9   Thumb Code    16  ff.o(i.st_clust)
    i.sync_fs                                0x00007cc8   Section        0  ff.o(i.sync_fs)
    sync_fs                                  0x00007cc9   Thumb Code   200  ff.o(i.sync_fs)
    i.sync_window                            0x00007d90   Section        0  ff.o(i.sync_window)
    sync_window                              0x00007d91   Thumb Code    82  ff.o(i.sync_window)
    i.validate                               0x00007de2   Section        0  ff.o(i.validate)
    validate                                 0x00007de3   Thumb Code    54  ff.o(i.validate)
    i.wait_ready                             0x00007e18   Section        0  edisk.o(i.wait_ready)
    wait_ready                               0x00007e19   Thumb Code    42  edisk.o(i.wait_ready)
    i.writecommand                           0x00007e48   Section        0  st7735.o(i.writecommand)
    writecommand                             0x00007e49   Thumb Code    68  st7735.o(i.writecommand)
    i.writedata                              0x00007e98   Section        0  st7735.o(i.writedata)
    writedata                                0x00007e99   Thumb Code    70  st7735.o(i.writedata)
    i.xchg_spi                               0x00007eec   Section        0  edisk.o(i.xchg_spi)
    xchg_spi                                 0x00007eed   Thumb Code    50  edisk.o(i.xchg_spi)
    i.xmit_datablock                         0x00007f24   Section        0  edisk.o(i.xmit_datablock)
    xmit_datablock                           0x00007f25   Thumb Code    76  edisk.o(i.xmit_datablock)
    i.xmit_spi_multi                         0x00007f70   Section        0  edisk.o(i.xmit_spi_multi)
    xmit_spi_multi                           0x00007f71   Thumb Code    42  edisk.o(i.xmit_spi_multi)
    .constdata                               0x00007fa0   Section     2114  st7735.o(.constdata)
    Font                                     0x00007fa0   Data        1275  st7735.o(.constdata)
    Bcmd                                     0x0000849b   Data         103  st7735.o(.constdata)
    Rcmd1                                    0x00008502   Data          59  st7735.o(.constdata)
    Rcmd2green                               0x0000853d   Data          13  st7735.o(.constdata)
    Rcmd2red                                 0x0000854a   Data          13  st7735.o(.constdata)
    Rcmd3                                    0x00008557   Data          43  st7735.o(.constdata)
    .constdata                               0x000087e4   Section       16  interpreter.o(.constdata)
    symtab                                   0x000087e4   Data           8  interpreter.o(.constdata)
    .constdata                               0x000087f4   Section       69  loader.o(.constdata)
    .constdata                               0x0000883a   Section       18  can.o(.constdata)
    g_usCANBitValues                         0x0000883a   Data          18  can.o(.constdata)
    .constdata                               0x0000884c   Section       54  esp8266.o(.constdata)
    ESP8266_READY_RESPONSE                   0x0000884c   Data          10  esp8266.o(.constdata)
    ESP8266_OK_RESPONSE                      0x00008856   Data           7  esp8266.o(.constdata)
    ESP8266_ERROR_RESPONSE                   0x0000885d   Data          10  esp8266.o(.constdata)
    ESP8266_FAIL_RESPONSE                    0x00008867   Data           9  esp8266.o(.constdata)
    ESP8266_SENDOK_RESPONSE                  0x00008870   Data          12  esp8266.o(.constdata)
    .constdata                               0x00008884   Section      268  interrupt.o(.constdata)
    g_pui32Priority                          0x00008884   Data          32  interrupt.o(.constdata)
    g_pui32Regs                              0x000088a4   Data         156  interrupt.o(.constdata)
    g_pui32EnRegs                            0x00008940   Data          20  interrupt.o(.constdata)
    g_pui32Dii16Regs                         0x00008954   Data          20  interrupt.o(.constdata)
    g_pui32PendRegs                          0x00008968   Data          20  interrupt.o(.constdata)
    g_pui32UnpendRegs                        0x0000897c   Data          20  interrupt.o(.constdata)
    .constdata                               0x00008990   Section      129  ctype_o.o(.constdata)
    .constdata                               0x00008a14   Section        4  ctype_o.o(.constdata)
    table                                    0x00008a14   Data           4  ctype_o.o(.constdata)
    .conststring                             0x00008a18   Section       15  interpreter.o(.conststring)
    .data                                    0x20000000   Section       60  lab6.o(.data)
    .data                                    0x2000003c   Section       48  os.o(.data)
    .data                                    0x2000006c   Section       44  st7735.o(.data)
    ColStart                                 0x20000076   Data           1  st7735.o(.data)
    RowStart                                 0x20000077   Data           1  st7735.o(.data)
    Rotation                                 0x20000078   Data           1  st7735.o(.data)
    TabColor                                 0x20000079   Data           1  st7735.o(.data)
    _width                                   0x2000007a   Data           2  st7735.o(.data)
    _height                                  0x2000007c   Data           2  st7735.o(.data)
    .data                                    0x20000098   Section       28  interpreter.o(.data)
    .data                                    0x200000b4   Section       16  uart0int.o(.data)
    .data                                    0x200000c4   Section       13  edisk.o(.data)
    Stat                                     0x200000c4   Data           1  edisk.o(.data)
    Timer1                                   0x200000c8   Data           4  edisk.o(.data)
    Timer2                                   0x200000cc   Data           4  edisk.o(.data)
    CardType                                 0x200000d0   Data           1  edisk.o(.data)
    .data                                    0x200000d4   Section       36  efile.o(.data)
    .data                                    0x200000f8   Section        6  ff.o(.data)
    FatFs                                    0x200000f8   Data           4  ff.o(.data)
    Fsid                                     0x200000fc   Data           2  ff.o(.data)
    .data                                    0x20000100   Section        8  adct0atrigger.o(.data)
    .data                                    0x20000108   Section        4  wtimer0a.o(.data)
    .data                                    0x2000010c   Section       16  can0.o(.data)
    RCVData                                  0x20000114   Data           4  can0.o(.data)
    MailFlag                                 0x20000118   Data           4  can0.o(.data)
    .data                                    0x2000011c   Section       60  esp8266.o(.data)
    ReceiveDataSearchIndex                   0x20000140   Data           4  esp8266.o(.data)
    ReceiveDataState                         0x20000144   Data           4  esp8266.o(.data)
    ReceiveDataStream                        0x20000148   Data           4  esp8266.o(.data)
    ReceiveDataLen                           0x2000014c   Data           4  esp8266.o(.data)
    .data                                    0x20000158   Section        4  timer5a.o(.data)
    .data                                    0x2000015c   Section        4  strtok.o(.data)
    state                                    0x2000015c   Data           4  strtok.o(.data)
    .data                                    0x20000160   Section        4  stdout.o(.data)
    .data                                    0x20000164   Section        4  errno.o(.data)
    _errno                                   0x20000164   Data           4  errno.o(.data)
    .bss                                     0x20000168   Section     7556  os.o(.bss)
    .bss                                     0x20001eec   Section       12  st7735.o(.bss)
    .bss                                     0x20001ef8   Section      144  interpreter.o(.bss)
    .bss                                     0x20001f88   Section     2048  uart0int.o(.bss)
    RxFifo                                   0x20001f88   Data        1024  uart0int.o(.bss)
    TxFifo                                   0x20002388   Data        1024  uart0int.o(.bss)
    .bss                                     0x20002788   Section     3584  efile.o(.bss)
    .bss                                     0x20003588   Section     1056  heap.o(.bss)
    .bss                                     0x200039a8   Section      672  loader.o(.bss)
    fd                                       0x200039a8   Data         548  loader.o(.bss)
    exec                                     0x20003bcc   Data         124  loader.o(.bss)
    .bss                                     0x20003c48   Section     3072  esp8266.o(.bss)
    ESP8266RxFifo                            0x20003c48   Data        1024  esp8266.o(.bss)
    ESP8266Rx0Fifo                           0x20004048   Data        1024  esp8266.o(.bss)
    ESP8266TxFifo                            0x20004448   Data        1024  esp8266.o(.bss)
    STACK                                    0x20004848   Section     1024  startup.o(STACK)
    StackMem                                 0x20004848   Data           0  startup.o(STACK)

    Global Symbols

    Symbol Name                              Value     Ov Type        Size  Object(Section)

    BuildAttributes$$THM_ISAv4$E$P$D$K$B$S$7EM$PE$A:L22UL41UL21$X:L11$S22US41US21$IEEE1$IW$USESV6$~STKCKD$USESV7$~SHL$OSPACE$ROPI$EBA8$MICROLIB$REQ8$PRES8$EABIv2 0x00000000   Number         0  anon$$obj.o ABSOLUTE
    __ARM_use_no_argv                        0x00000000   Number         0  lab6.o ABSOLUTE
    __Vectors                                0x00000000   Data           0  startup.o(RESET)
    _printf_a                                0x00000000   Number         0  stubs.o ABSOLUTE
    _printf_c                                0x00000000   Number         0  stubs.o ABSOLUTE
    _printf_charcount                        0x00000000   Number         0  stubs.o ABSOLUTE
    _printf_d                                0x00000000   Number         0  stubs.o ABSOLUTE
    _printf_e                                0x00000000   Number         0  stubs.o ABSOLUTE
    _printf_f                                0x00000000   Number         0  stubs.o ABSOLUTE
    _printf_flags                            0x00000000   Number         0  stubs.o ABSOLUTE
    _printf_fp_dec                           0x00000000   Number         0  stubs.o ABSOLUTE
    _printf_fp_hex                           0x00000000   Number         0  stubs.o ABSOLUTE
    _printf_g                                0x00000000   Number         0  stubs.o ABSOLUTE
    _printf_i                                0x00000000   Number         0  stubs.o ABSOLUTE
    _printf_int_dec                          0x00000000   Number         0  stubs.o ABSOLUTE
    _printf_l                                0x00000000   Number         0  stubs.o ABSOLUTE
    _printf_lc                               0x00000000   Number         0  stubs.o ABSOLUTE
    _printf_ll                               0x00000000   Number         0  stubs.o ABSOLUTE
    _printf_lld                              0x00000000   Number         0  stubs.o ABSOLUTE
    _printf_lli                              0x00000000   Number         0  stubs.o ABSOLUTE
    _printf_llo                              0x00000000   Number         0  stubs.o ABSOLUTE
    _printf_llu                              0x00000000   Number         0  stubs.o ABSOLUTE
    _printf_llx                              0x00000000   Number         0  stubs.o ABSOLUTE
    _printf_longlong_dec                     0x00000000   Number         0  stubs.o ABSOLUTE
    _printf_longlong_hex                     0x00000000   Number         0  stubs.o ABSOLUTE
    _printf_longlong_oct                     0x00000000   Number         0  stubs.o ABSOLUTE
    _printf_ls                               0x00000000   Number         0  stubs.o ABSOLUTE
    _printf_mbtowc                           0x00000000   Number         0  stubs.o ABSOLUTE
    _printf_n                                0x00000000   Number         0  stubs.o ABSOLUTE
    _printf_o                                0x00000000   Number         0  stubs.o ABSOLUTE
    _printf_p                                0x00000000   Number         0  stubs.o ABSOLUTE
    _printf_percent                          0x00000000   Number         0  stubs.o ABSOLUTE
    _printf_pre_padding                      0x00000000   Number         0  stubs.o ABSOLUTE
    _printf_return_value                     0x00000000   Number         0  stubs.o ABSOLUTE
    _printf_s                                0x00000000   Number         0  stubs.o ABSOLUTE
    _printf_sizespec                         0x00000000   Number         0  stubs.o ABSOLUTE
    _printf_str                              0x00000000   Number         0  stubs.o ABSOLUTE
    _printf_truncate_signed                  0x00000000   Number         0  stubs.o ABSOLUTE
    _printf_truncate_unsigned                0x00000000   Number         0  stubs.o ABSOLUTE
    _printf_u                                0x00000000   Number         0  stubs.o ABSOLUTE
    _printf_wc                               0x00000000   Number         0  stubs.o ABSOLUTE
    _printf_wctomb                           0x00000000   Number         0  stubs.o ABSOLUTE
    _printf_widthprec                        0x00000000   Number         0  stubs.o ABSOLUTE
    _printf_x                                0x00000000   Number         0  stubs.o ABSOLUTE
    __arm_fini_                               - Undefined Weak Reference
    __cpp_initialize__aeabi_                  - Undefined Weak Reference
    __cxa_finalize                            - Undefined Weak Reference
    _clock_init                               - Undefined Weak Reference
    _microlib_exit                            - Undefined Weak Reference
    Reset_Handler                            0x0000026d   Thumb Code     0  startup.o(RESET)
    NMI_Handler                              0x00000271   Thumb Code     2  startup.o(RESET)
    HardFault_Handler                        0x00000273   Thumb Code     2  startup.o(RESET)
    MemManage_Handler                        0x00000275   Thumb Code     2  startup.o(RESET)
    BusFault_Handler                         0x00000277   Thumb Code     2  startup.o(RESET)
    UsageFault_Handler                       0x00000279   Thumb Code     2  startup.o(RESET)
    DebugMon_Handler                         0x0000027d   Thumb Code     2  startup.o(RESET)
    ADC0Seq1_Handler                         0x00000283   Thumb Code     0  startup.o(RESET)
    ADC0Seq2_Handler                         0x00000283   Thumb Code     0  startup.o(RESET)
    ADC1Seq0_Handler                         0x00000283   Thumb Code     0  startup.o(RESET)
    ADC1Seq1_Handler                         0x00000283   Thumb Code     0  startup.o(RESET)
    ADC1Seq2_Handler                         0x00000283   Thumb Code     0  startup.o(RESET)
    ADC1Seq3_Handler                         0x00000283   Thumb Code     0  startup.o(RESET)
    CAN1_Handler                             0x00000283   Thumb Code     0  startup.o(RESET)
    CAN2_Handler                             0x00000283   Thumb Code     0  startup.o(RESET)
    Comp0_Handler                            0x00000283   Thumb Code     0  startup.o(RESET)
    Comp1_Handler                            0x00000283   Thumb Code     0  startup.o(RESET)
    Comp2_Handler                            0x00000283   Thumb Code     0  startup.o(RESET)
    Ethernet_Handler                         0x00000283   Thumb Code     0  startup.o(RESET)
    ExtBus_Handler                           0x00000283   Thumb Code     0  startup.o(RESET)
    FPU_Handler                              0x00000283   Thumb Code     0  startup.o(RESET)
    Fan0_Handler                             0x00000283   Thumb Code     0  startup.o(RESET)
    FlashCtl_Handler                         0x00000283   Thumb Code     0  startup.o(RESET)
    GPIOPortA_Handler                        0x00000283   Thumb Code     0  startup.o(RESET)
    GPIOPortB_Handler                        0x00000283   Thumb Code     0  startup.o(RESET)
    GPIOPortC_Handler                        0x00000283   Thumb Code     0  startup.o(RESET)
    GPIOPortD_Handler                        0x00000283   Thumb Code     0  startup.o(RESET)
    GPIOPortE_Handler                        0x00000283   Thumb Code     0  startup.o(RESET)
    GPIOPortG_Handler                        0x00000283   Thumb Code     0  startup.o(RESET)
    GPIOPortH_Handler                        0x00000283   Thumb Code     0  startup.o(RESET)
    GPIOPortJ_Handler                        0x00000283   Thumb Code     0  startup.o(RESET)
    GPIOPortK_Handler                        0x00000283   Thumb Code     0  startup.o(RESET)
    GPIOPortL_Handler                        0x00000283   Thumb Code     0  startup.o(RESET)
    GPIOPortM_Handler                        0x00000283   Thumb Code     0  startup.o(RESET)
    GPIOPortN_Handler                        0x00000283   Thumb Code     0  startup.o(RESET)
    GPIOPortP1_Handler                       0x00000283   Thumb Code     0  startup.o(RESET)
    GPIOPortP2_Handler                       0x00000283   Thumb Code     0  startup.o(RESET)
    GPIOPortP3_Handler                       0x00000283   Thumb Code     0  startup.o(RESET)
    GPIOPortP4_Handler                       0x00000283   Thumb Code     0  startup.o(RESET)
    GPIOPortP5_Handler                       0x00000283   Thumb Code     0  startup.o(RESET)
    GPIOPortP6_Handler                       0x00000283   Thumb Code     0  startup.o(RESET)
    GPIOPortP7_Handler                       0x00000283   Thumb Code     0  startup.o(RESET)
    GPIOPortP_Handler                        0x00000283   Thumb Code     0  startup.o(RESET)
    GPIOPortQ1_Handler                       0x00000283   Thumb Code     0  startup.o(RESET)
    GPIOPortQ2_Handler                       0x00000283   Thumb Code     0  startup.o(RESET)
    GPIOPortQ3_Handler                       0x00000283   Thumb Code     0  startup.o(RESET)
    GPIOPortQ4_Handler                       0x00000283   Thumb Code     0  startup.o(RESET)
    GPIOPortQ5_Handler                       0x00000283   Thumb Code     0  startup.o(RESET)
    GPIOPortQ6_Handler                       0x00000283   Thumb Code     0  startup.o(RESET)
    GPIOPortQ7_Handler                       0x00000283   Thumb Code     0  startup.o(RESET)
    GPIOPortQ_Handler                        0x00000283   Thumb Code     0  startup.o(RESET)
    GPIOPortR_Handler                        0x00000283   Thumb Code     0  startup.o(RESET)
    GPIOPortS_Handler                        0x00000283   Thumb Code     0  startup.o(RESET)
    Hibernate_Handler                        0x00000283   Thumb Code     0  startup.o(RESET)
    I2C0_Handler                             0x00000283   Thumb Code     0  startup.o(RESET)
    I2C1_Handler                             0x00000283   Thumb Code     0  startup.o(RESET)
    I2C2_Handler                             0x00000283   Thumb Code     0  startup.o(RESET)
    I2C3_Handler                             0x00000283   Thumb Code     0  startup.o(RESET)
    I2C4_Handler                             0x00000283   Thumb Code     0  startup.o(RESET)
    I2C5_Handler                             0x00000283   Thumb Code     0  startup.o(RESET)
    I2S0_Handler                             0x00000283   Thumb Code     0  startup.o(RESET)
    LPC0_Handler                             0x00000283   Thumb Code     0  startup.o(RESET)
    PECI0_Handler                            0x00000283   Thumb Code     0  startup.o(RESET)
    PWM0Fault_Handler                        0x00000283   Thumb Code     0  startup.o(RESET)
    PWM0Generator0_Handler                   0x00000283   Thumb Code     0  startup.o(RESET)
    PWM0Generator1_Handler                   0x00000283   Thumb Code     0  startup.o(RESET)
    PWM0Generator2_Handler                   0x00000283   Thumb Code     0  startup.o(RESET)
    PWM0Generator3_Handler                   0x00000283   Thumb Code     0  startup.o(RESET)
    PWM1Fault_Handler                        0x00000283   Thumb Code     0  startup.o(RESET)
    PWM1Generator0_Handler                   0x00000283   Thumb Code     0  startup.o(RESET)
    PWM1Generator1_Handler                   0x00000283   Thumb Code     0  startup.o(RESET)
    PWM1Generator2_Handler                   0x00000283   Thumb Code     0  startup.o(RESET)
    PWM1Generator3_Handler                   0x00000283   Thumb Code     0  startup.o(RESET)
    Quadrature0_Handler                      0x00000283   Thumb Code     0  startup.o(RESET)
    Quadrature1_Handler                      0x00000283   Thumb Code     0  startup.o(RESET)
    Quadrature2_Handler                      0x00000283   Thumb Code     0  startup.o(RESET)
    SSI0_Handler                             0x00000283   Thumb Code     0  startup.o(RESET)
    SSI1_Handler                             0x00000283   Thumb Code     0  startup.o(RESET)
    SSI2_Handler                             0x00000283   Thumb Code     0  startup.o(RESET)
    SSI3_Handler                             0x00000283   Thumb Code     0  startup.o(RESET)
    SysCtl_Handler                           0x00000283   Thumb Code     0  startup.o(RESET)
    Timer0A_Handler                          0x00000283   Thumb Code     0  startup.o(RESET)
    Timer0B_Handler                          0x00000283   Thumb Code     0  startup.o(RESET)
    Timer1A_Handler                          0x00000283   Thumb Code     0  startup.o(RESET)
    Timer1B_Handler                          0x00000283   Thumb Code     0  startup.o(RESET)
    Timer2A_Handler                          0x00000283   Thumb Code     0  startup.o(RESET)
    Timer2B_Handler                          0x00000283   Thumb Code     0  startup.o(RESET)
    Timer3A_Handler                          0x00000283   Thumb Code     0  startup.o(RESET)
    Timer3B_Handler                          0x00000283   Thumb Code     0  startup.o(RESET)
    Timer4B_Handler                          0x00000283   Thumb Code     0  startup.o(RESET)
    Timer5B_Handler                          0x00000283   Thumb Code     0  startup.o(RESET)
    UART1_Handler                            0x00000283   Thumb Code     0  startup.o(RESET)
    UART3_Handler                            0x00000283   Thumb Code     0  startup.o(RESET)
    UART4_Handler                            0x00000283   Thumb Code     0  startup.o(RESET)
    UART5_Handler                            0x00000283   Thumb Code     0  startup.o(RESET)
    UART6_Handler                            0x00000283   Thumb Code     0  startup.o(RESET)
    UART7_Handler                            0x00000283   Thumb Code     0  startup.o(RESET)
    USB0_Handler                             0x00000283   Thumb Code     0  startup.o(RESET)
    WDT_Handler                              0x00000283   Thumb Code     0  startup.o(RESET)
    WideTimer0B_Handler                      0x00000283   Thumb Code     0  startup.o(RESET)
    WideTimer1A_Handler                      0x00000283   Thumb Code     0  startup.o(RESET)
    WideTimer1B_Handler                      0x00000283   Thumb Code     0  startup.o(RESET)
    WideTimer2A_Handler                      0x00000283   Thumb Code     0  startup.o(RESET)
    WideTimer2B_Handler                      0x00000283   Thumb Code     0  startup.o(RESET)
    WideTimer3A_Handler                      0x00000283   Thumb Code     0  startup.o(RESET)
    WideTimer3B_Handler                      0x00000283   Thumb Code     0  startup.o(RESET)
    WideTimer4A_Handler                      0x00000283   Thumb Code     0  startup.o(RESET)
    WideTimer4B_Handler                      0x00000283   Thumb Code     0  startup.o(RESET)
    WideTimer5A_Handler                      0x00000283   Thumb Code     0  startup.o(RESET)
    WideTimer5B_Handler                      0x00000283   Thumb Code     0  startup.o(RESET)
    uDMA_Error                               0x00000283   Thumb Code     0  startup.o(RESET)
    uDMA_Handler                             0x00000283   Thumb Code     0  startup.o(RESET)
    __main                                   0x00000285   Thumb Code     0  entry.o(.ARM.Collect$$$$00000000)
    _main_stk                                0x00000285   Thumb Code     0  entry2.o(.ARM.Collect$$$$00000001)
    _main_scatterload                        0x00000289   Thumb Code     0  entry5.o(.ARM.Collect$$$$00000004)
    __main_after_scatterload                 0x0000028d   Thumb Code     0  entry5.o(.ARM.Collect$$$$00000004)
    _main_clock                              0x0000028d   Thumb Code     0  entry7b.o(.ARM.Collect$$$$00000008)
    _main_cpp_init                           0x0000028d   Thumb Code     0  entry8b.o(.ARM.Collect$$$$0000000A)
    _main_init                               0x0000028d   Thumb Code     0  entry9a.o(.ARM.Collect$$$$0000000B)
    __rt_lib_shutdown_fini                   0x00000295   Thumb Code     0  entry12b.o(.ARM.Collect$$$$0000000E)
    __rt_final_cpp                           0x00000299   Thumb Code     0  entry10a.o(.ARM.Collect$$$$0000000F)
    __rt_final_exit                          0x00000299   Thumb Code     0  entry11a.o(.ARM.Collect$$$$00000011)
    DisableInterrupts                        0x0000029d   Thumb Code     0  startup.o(.text)
    EnableInterrupts                         0x000002a1   Thumb Code     0  startup.o(.text)
    StartCritical                            0x000002a5   Thumb Code     0  startup.o(.text)
    EndCritical                              0x000002ad   Thumb Code     0  startup.o(.text)
    WaitForInterrupt                         0x000002b3   Thumb Code     0  startup.o(.text)
    StartOS                                  0x000002b9   Thumb Code     0  osasm.o(.text)
    ContextSwitch                            0x000002db   Thumb Code     0  osasm.o(.text)
    PendSV_Handler                           0x000002e5   Thumb Code     0  osasm.o(.text)
    SVC_Handler                              0x00000305   Thumb Code     0  osasm.o(.text)
    __aeabi_memcpy                           0x00000371   Thumb Code    36  memcpya.o(.text)
    __aeabi_memcpy4                          0x00000371   Thumb Code     0  memcpya.o(.text)
    __aeabi_memcpy8                          0x00000371   Thumb Code     0  memcpya.o(.text)
    strcat                                   0x00000395   Thumb Code    24  strcat.o(.text)
    strlen                                   0x000003ad   Thumb Code    14  strlen.o(.text)
    strcmp                                   0x000003bb   Thumb Code    28  strcmp.o(.text)
    memcmp                                   0x000003d7   Thumb Code    26  memcmp.o(.text)
    strcpy                                   0x000003f1   Thumb Code    18  strcpy.o(.text)
    strtok                                   0x00000405   Thumb Code    62  strtok.o(.text)
    strtol                                   0x00000449   Thumb Code   112  strtol.o(.text)
    __aeabi_uidiv                            0x000004b9   Thumb Code     0  uidiv.o(.text)
    __aeabi_uidivmod                         0x000004b9   Thumb Code    44  uidiv.o(.text)
    __rt_ctype_table                         0x000004e5   Thumb Code     4  ctype_o.o(.text)
    _strtoul                                 0x000004ed   Thumb Code   158  _strtoul.o(.text)
    __scatterload                            0x0000058d   Thumb Code    28  init.o(.text)
    __scatterload_rt2                        0x0000058d   Thumb Code     0  init.o(.text)
    _chval                                   0x000005b1   Thumb Code    28  _chval.o(.text)
    __decompress                             0x000005cd   Thumb Code     0  __dczerorl.o(.text)
    __decompress0                            0x000005cd   Thumb Code    58  __dczerorl.o(.text)
    ADC0Seq0_Handler                         0x00000609   Thumb Code    26  adct0atrigger.o(i.ADC0Seq0_Handler)
    ADC0Seq3_Handler                         0x0000062d   Thumb Code    18  adct0atrigger.o(i.ADC0Seq3_Handler)
    ADC_In                                   0x00000649   Thumb Code    38  adc.o(i.ADC_In)
    ADC_Init                                 0x00000675   Thumb Code   954  adc.o(i.ADC_Init)
    Buck_Fun                                 0x00000a59   Thumb Code   156  lab6.o(i.Buck_Fun)
    CAN0_Handler                             0x00000b05   Thumb Code   118  can0.o(i.CAN0_Handler)
    CAN0_Open                                0x00000b8d   Thumb Code   188  can0.o(i.CAN0_Open)
    CANBitRateSet                            0x00000ca1   Thumb Code   142  can.o(i.CANBitRateSet)
    CANEnable                                0x00000da1   Thumb Code    24  can.o(i.CANEnable)
    CANInit                                  0x00000db9   Thumb Code   154  can.o(i.CANInit)
    CANIntClear                              0x00000e53   Thumb Code    80  can.o(i.CANIntClear)
    CANIntEnable                             0x00000ea3   Thumb Code    26  can.o(i.CANIntEnable)
    CANIntStatus                             0x00000ee5   Thumb Code    60  can.o(i.CANIntStatus)
    CANMessageGet                            0x00000f21   Thumb Code   438  can.o(i.CANMessageGet)
    CANMessageSet                            0x000010d7   Thumb Code   436  can.o(i.CANMessageSet)
    CANStatusGet                             0x000012f1   Thumb Code   124  can.o(i.CANStatusGet)
    CS_Init                                  0x0000136d   Thumb Code   118  edisk.o(i.CS_Init)
    Client                                   0x000013f9   Thumb Code  1470  interpreter.o(i.Client)
    ClientSend                               0x00001b09   Thumb Code    98  interpreter.o(i.ClientSend)
    Delay1ms                                 0x00001b8d   Thumb Code    32  st7735.o(i.Delay1ms)
    DelayMs                                  0x00001bad   Thumb Code    32  esp8266.o(i.DelayMs)
    ESP8266Rx0Fifo_Get                       0x00001c09   Thumb Code    46  esp8266.o(i.ESP8266Rx0Fifo_Get)
    ESP8266Rx0Fifo_Init                      0x00001c45   Thumb Code    12  esp8266.o(i.ESP8266Rx0Fifo_Init)
    ESP8266Rx0Fifo_Put                       0x00001c59   Thumb Code    48  esp8266.o(i.ESP8266Rx0Fifo_Put)
    ESP8266Rx0Fifo_Size                      0x00001c95   Thumb Code    14  esp8266.o(i.ESP8266Rx0Fifo_Size)
    ESP8266RxFifo_Get                        0x00001cad   Thumb Code    46  esp8266.o(i.ESP8266RxFifo_Get)
    ESP8266RxFifo_Init                       0x00001ce9   Thumb Code    12  esp8266.o(i.ESP8266RxFifo_Init)
    ESP8266RxFifo_Put                        0x00001cfd   Thumb Code    48  esp8266.o(i.ESP8266RxFifo_Put)
    ESP8266RxFifo_Size                       0x00001d39   Thumb Code    14  esp8266.o(i.ESP8266RxFifo_Size)
    ESP8266TxFifo_Get                        0x00001d95   Thumb Code    46  esp8266.o(i.ESP8266TxFifo_Get)
    ESP8266TxFifo_Init                       0x00001dd1   Thumb Code    12  esp8266.o(i.ESP8266TxFifo_Init)
    ESP8266TxFifo_Put                        0x00001de5   Thumb Code    48  esp8266.o(i.ESP8266TxFifo_Put)
    ESP8266TxFifo_Size                       0x00001e21   Thumb Code    14  esp8266.o(i.ESP8266TxFifo_Size)
    ESP8266_CloseTCPConnection               0x00001e39   Thumb Code    54  esp8266.o(i.ESP8266_CloseTCPConnection)
    ESP8266_Connect                          0x00001e9d   Thumb Code    80  esp8266.o(i.ESP8266_Connect)
    ESP8266_DisableInterrupt                 0x00001f09   Thumb Code     8  esp8266.o(i.ESP8266_DisableInterrupt)
    ESP8266_EnableInterrupt                  0x00001f15   Thumb Code    26  esp8266.o(i.ESP8266_EnableInterrupt)
    ESP8266_GetIPAddress                     0x00001f39   Thumb Code    36  esp8266.o(i.ESP8266_GetIPAddress)
    ESP8266_GetMACAddress                    0x00001f71   Thumb Code    36  esp8266.o(i.ESP8266_GetMACAddress)
    ESP8266_GetVersionNumber                 0x00001fa9   Thumb Code    36  esp8266.o(i.ESP8266_GetVersionNumber)
    ESP8266_InChar                           0x00001fdd   Thumb Code    20  esp8266.o(i.ESP8266_InChar)
    ESP8266_Init                             0x00001ff1   Thumb Code   190  esp8266.o(i.ESP8266_Init)
    ESP8266_InitUART                         0x000020c9   Thumb Code   226  esp8266.o(i.ESP8266_InitUART)
    ESP8266_JoinAccessPoint                  0x000021cd   Thumb Code    64  esp8266.o(i.ESP8266_JoinAccessPoint)
    ESP8266_ListAccessPoints                 0x00002229   Thumb Code    36  esp8266.o(i.ESP8266_ListAccessPoints)
    ESP8266_MakeTCPConnection                0x00002261   Thumb Code    82  esp8266.o(i.ESP8266_MakeTCPConnection)
    ESP8266_OutChar                          0x000022d9   Thumb Code    46  esp8266.o(i.ESP8266_OutChar)
    ESP8266_Receive                          0x0000230d   Thumb Code   146  esp8266.o(i.ESP8266_Receive)
    ESP8266_Reset                            0x000023c1   Thumb Code    36  esp8266.o(i.ESP8266_Reset)
    ESP8266_Send                             0x000023f5   Thumb Code    98  esp8266.o(i.ESP8266_Send)
    ESP8266_SendCommand                      0x0000248d   Thumb Code    26  esp8266.o(i.ESP8266_SendCommand)
    ESP8266_SetWifiMode                      0x000024a9   Thumb Code    52  esp8266.o(i.ESP8266_SetWifiMode)
    ESP8266_WaitForResponse                  0x000024f1   Thumb Code   108  esp8266.o(i.ESP8266_WaitForResponse)
    GPIOPortF_Handler                        0x0000255d   Thumb Code    16  os.o(i.GPIOPortF_Handler)
    Heap_Free                                0x00002575   Thumb Code   166  heap.o(i.Heap_Free)
    Heap_Init                                0x00002621   Thumb Code    72  heap.o(i.Heap_Init)
    Heap_Malloc                              0x00002671   Thumb Code   174  heap.o(i.Heap_Malloc)
    Idle                                     0x00002725   Thumb Code    24  lab6.o(i.Idle)
    Init                                     0x00002741   Thumb Code    32  lab6.o(i.Init)
    IntDisable                               0x000027a5   Thumb Code   108  interrupt.o(i.IntDisable)
    IntEnable                                0x00002819   Thumb Code   108  interrupt.o(i.IntEnable)
    Interpreter                              0x0000288d   Thumb Code  2004  interpreter.o(i.Interpreter)
    Jitter                                   0x000031f5   Thumb Code   182  interpreter.o(i.Jitter)
    Judge_Free_Space                         0x000032d9   Thumb Code    14  heap.o(i.Judge_Free_Space)
    LOADER_CLEAR                             0x000032e7   Thumb Code    24  loader.o(i.LOADER_CLEAR)
    LOADER_OPEN_FOR_RD                       0x00003301   Thumb Code    24  loader.o(i.LOADER_OPEN_FOR_RD)
    LOADER_READ                              0x0000331d   Thumb Code    30  loader.o(i.LOADER_READ)
    OSTtask                                  0x0000333d   Thumb Code    22  os.o(i.OSTtask)
    OS_AddPeriodicThread                     0x0000335d   Thumb Code    80  os.o(i.OS_AddPeriodicThread)
    OS_AddProcess                            0x000033c1   Thumb Code    10  os.o(i.OS_AddProcess)
    OS_AddThread                             0x000033cd   Thumb Code   752  os.o(i.OS_AddThread)
    OS_ClearMsTime                           0x000036c9   Thumb Code    52  os.o(i.OS_ClearMsTime)
    OS_EndRedirectToFile                     0x00003711   Thumb Code    22  os.o(i.OS_EndRedirectToFile)
    OS_Id                                    0x0000372d   Thumb Code     4  os.o(i.OS_Id)
    OS_Init                                  0x00003731   Thumb Code   106  os.o(i.OS_Init)
    OS_InitSemaphore                         0x000037e5   Thumb Code     4  os.o(i.OS_InitSemaphore)
    OS_Kill                                  0x000037e9   Thumb Code    90  os.o(i.OS_Kill)
    OS_Launch                                0x00003855   Thumb Code    40  os.o(i.OS_Launch)
    OS_MsTime                                0x00003889   Thumb Code    36  os.o(i.OS_MsTime)
    OS_Signal                                0x000038c1   Thumb Code    24  os.o(i.OS_Signal)
    OS_Sleep                                 0x000038d9   Thumb Code    64  os.o(i.OS_Sleep)
    OS_Time                                  0x00003925   Thumb Code    26  os.o(i.OS_Time)
    OS_Wait                                  0x00003951   Thumb Code    36  os.o(i.OS_Wait)
    PLL_Init                                 0x00003975   Thumb Code   120  pll.o(i.PLL_Init)
    PortD_Init                               0x000039f1   Thumb Code   216  lab6.o(i.PortD_Init)
    ReceiveDataFilter                        0x00003ae5   Thumb Code   306  esp8266.o(i.ReceiveDataFilter)
    RxFifo_Get                               0x00003c39   Thumb Code    46  uart0int.o(i.RxFifo_Get)
    RxFifo_Init                              0x00003c75   Thumb Code    12  uart0int.o(i.RxFifo_Init)
    RxFifo_Put                               0x00003c89   Thumb Code    48  uart0int.o(i.RxFifo_Put)
    RxFifo_Size                              0x00003cc5   Thumb Code    14  uart0int.o(i.RxFifo_Size)
    SSI0_Init                                0x00003cdd   Thumb Code   302  edisk.o(i.SSI0_Init)
    ST7735_Color565                          0x00003e29   Thumb Code    24  st7735.o(i.ST7735_Color565)
    ST7735_DrawCharS                         0x00003e41   Thumb Code   236  st7735.o(i.ST7735_DrawCharS)
    ST7735_DrawPixel                         0x00003f39   Thumb Code    64  st7735.o(i.ST7735_DrawPixel)
    ST7735_DrawString                        0x00003f81   Thumb Code    86  st7735.o(i.ST7735_DrawString)
    ST7735_FillRect                          0x00003fd9   Thumb Code   164  st7735.o(i.ST7735_FillRect)
    ST7735_FillScreen                        0x00004085   Thumb Code    28  st7735.o(i.ST7735_FillScreen)
    ST7735_InitR                             0x000040a9   Thumb Code    98  st7735.o(i.ST7735_InitR)
    ST7735_Message                           0x00004131   Thumb Code   162  st7735.o(i.ST7735_Message)
    ST7735_OutChar                           0x000041d9   Thumb Code   176  st7735.o(i.ST7735_OutChar)
    ST7735_OutUDec                           0x000042ad   Thumb Code   118  st7735.o(i.ST7735_OutUDec)
    ST7735_SetCursor                         0x00004339   Thumb Code    22  st7735.o(i.ST7735_SetCursor)
    SysTick_Handler                          0x00004359   Thumb Code    42  os.o(i.SysTick_Handler)
    SysTick_Init                             0x00004391   Thumb Code    38  os.o(i.SysTick_Init)
    Timer4A_Handler                          0x000043bd   Thumb Code    16  os.o(i.Timer4A_Handler)
    Timer5A_Handler                          0x000043d5   Thumb Code    16  timer5a.o(i.Timer5A_Handler)
    Timer5A_Init                             0x000043ed   Thumb Code    76  timer5a.o(i.Timer5A_Init)
    TxFifo_Get                               0x0000444d   Thumb Code    46  uart0int.o(i.TxFifo_Get)
    TxFifo_Init                              0x00004489   Thumb Code    12  uart0int.o(i.TxFifo_Init)
    TxFifo_Put                               0x0000449d   Thumb Code    48  uart0int.o(i.TxFifo_Put)
    TxFifo_Size                              0x000044d9   Thumb Code    14  uart0int.o(i.TxFifo_Size)
    UART0_Handler                            0x000044f1   Thumb Code    82  uart0int.o(i.UART0_Handler)
    UART2_Handler                            0x00004549   Thumb Code    82  esp8266.o(i.UART2_Handler)
    UART_InChar                              0x000045a1   Thumb Code    26  uart0int.o(i.UART_InChar)
    UART_InString                            0x000045c1   Thumb Code    70  uart0int.o(i.UART_InString)
    UART_Init                                0x00004609   Thumb Code   174  uart0int.o(i.UART_Init)
    UART_OutChar                             0x000046d1   Thumb Code    52  uart0int.o(i.UART_OutChar)
    UART_OutCharNonBlock                     0x0000470d   Thumb Code    46  uart0int.o(i.UART_OutCharNonBlock)
    UART_OutString                           0x00004741   Thumb Code    24  uart0int.o(i.UART_OutString)
    UART_OutUDec                             0x00004759   Thumb Code    42  uart0int.o(i.UART_OutUDec)
    WDTimer0A_task                           0x00004785   Thumb Code    66  os.o(i.WDTimer0A_task)
    WideTimer0A_Handler                      0x000047d1   Thumb Code    16  wtimer0a.o(i.WideTimer0A_Handler)
    WideTimer0A_Init                         0x000047e9   Thumb Code    78  wtimer0a.o(i.WideTimer0A_Init)
    __0printf$1                              0x0000484d   Thumb Code    22  printf1.o(i.__0printf$1)
    __1printf$1                              0x0000484d   Thumb Code     0  printf1.o(i.__0printf$1)
    __2printf                                0x0000484d   Thumb Code     0  printf1.o(i.__0printf$1)
    __0sprintf$1                             0x0000486d   Thumb Code    34  printf1.o(i.__0sprintf$1)
    __1sprintf$1                             0x0000486d   Thumb Code     0  printf1.o(i.__0sprintf$1)
    __2sprintf                               0x0000486d   Thumb Code     0  printf1.o(i.__0sprintf$1)
    __aeabi_errno_addr                       0x00004895   Thumb Code     4  errno.o(i.__aeabi_errno_addr)
    __rt_errno_addr                          0x00004895   Thumb Code     0  errno.o(i.__aeabi_errno_addr)
    __scatterload_copy                       0x0000489d   Thumb Code    14  handlers.o(i.__scatterload_copy)
    __scatterload_null                       0x000048ab   Thumb Code     2  handlers.o(i.__scatterload_null)
    __scatterload_zeroinit                   0x000048ad   Thumb Code    14  handlers.o(i.__scatterload_zeroinit)
    clust2sect                               0x00004b1d   Thumb Code    26  ff.o(i.clust2sect)
    disk_ioctl                               0x000052c5   Thumb Code   544  edisk.o(i.disk_ioctl)
    disk_timerproc                           0x000054ed   Thumb Code    52  edisk.o(i.disk_timerproc)
    eDisk_Init                               0x00005531   Thumb Code   330  edisk.o(i.eDisk_Init)
    eDisk_Read                               0x0000568d   Thumb Code   136  edisk.o(i.eDisk_Read)
    eDisk_ReadBlock                          0x0000571d   Thumb Code    20  edisk.o(i.eDisk_ReadBlock)
    eDisk_Status                             0x00005731   Thumb Code    14  edisk.o(i.eDisk_Status)
    eDisk_Write                              0x00005745   Thumb Code   170  edisk.o(i.eDisk_Write)
    eDisk_WriteBlock                         0x000057f9   Thumb Code    20  edisk.o(i.eDisk_WriteBlock)
    eFile_Create                             0x0000580d   Thumb Code    88  efile.o(i.eFile_Create)
    eFile_Delete                             0x00005871   Thumb Code   248  efile.o(i.eFile_Delete)
    eFile_Format                             0x00005985   Thumb Code   194  efile.o(i.eFile_Format)
    eFile_Init                               0x00005a61   Thumb Code    12  efile.o(i.eFile_Init)
    eFile_Mount                              0x00005a6d   Thumb Code   236  efile.o(i.eFile_Mount)
    eFile_RClose                             0x00005b65   Thumb Code    52  efile.o(i.eFile_RClose)
    eFile_ROpen                              0x00005ba9   Thumb Code   100  efile.o(i.eFile_ROpen)
    eFile_ReadNext                           0x00005c25   Thumb Code   178  efile.o(i.eFile_ReadNext)
    eFile_Unmount                            0x00005ce9   Thumb Code   212  efile.o(i.eFile_Unmount)
    eFile_WClose                             0x00005dc5   Thumb Code   226  efile.o(i.eFile_WClose)
    eFile_WOpen                              0x00005ec5   Thumb Code   124  efile.o(i.eFile_WOpen)
    eFile_Write                              0x00005f61   Thumb Code   230  efile.o(i.eFile_Write)
    exec_elf                                 0x00006061   Thumb Code   184  loader.o(i.exec_elf)
    f_close                                  0x00006149   Thumb Code    32  ff.o(i.f_close)
    f_lseek                                  0x00006169   Thumb Code   382  ff.o(i.f_lseek)
    f_open                                   0x000062e9   Thumb Code   352  ff.o(i.f_open)
    f_read                                   0x0000644d   Thumb Code   416  ff.o(i.f_read)
    f_sync                                   0x000065ed   Thumb Code   172  ff.o(i.f_sync)
    fillmessage                              0x0000669d   Thumb Code    64  st7735.o(i.fillmessage)
    fputc                                    0x00006b21   Thumb Code    44  os.o(i.fputc)
    get_fat                                  0x00006b7d   Thumb Code   242  ff.o(i.get_fat)
    main                                     0x00007161   Thumb Code    10  lab6.o(i.main)
    put_fat                                  0x000073df   Thumb Code   322  ff.o(i.put_fat)
    realmain                                 0x0000775d   Thumb Code   138  lab6.o(i.realmain)
    smallCircle                              0x00008582   Data          36  st7735.o(.constdata)
    circle                                   0x000085a6   Data          60  st7735.o(.constdata)
    dBfs                                     0x000085e2   Data         512  st7735.o(.constdata)
    ReceiveDataSearchString                  0x0000887c   Data           6  esp8266.o(.constdata)
    __ctype_table                            0x00008990   Data         129  ctype_o.o(.constdata)
    Region$$Table$$Base                      0x00008a28   Number         0  anon$$obj.o(Region$$Table)
    Region$$Table$$Limit                     0x00008a48   Number         0  anon$$obj.o(Region$$Table)
    IntTerm                                  0x20000000   Data           2  lab6.o(.data)
    PrevError                                0x20000002   Data           2  lab6.o(.data)
    NumCreated                               0x20000004   Data           4  lab6.o(.data)
    IdleCount                                0x20000008   Data           4  lab6.o(.data)
    Error_Type                               0x2000000c   Data           4  lab6.o(.data)
    Error_Num                                0x20000010   Data           4  lab6.o(.data)
    Error_Send                               0x20000014   Data           4  lab6.o(.data)
    Count1                                   0x20000018   Data           4  lab6.o(.data)
    Count2                                   0x2000001c   Data           4  lab6.o(.data)
    Count3                                   0x20000020   Data           4  lab6.o(.data)
    XmtData                                  0x20000024   Data           4  lab6.o(.data)
    RcvData                                  0x20000028   Data           4  lab6.o(.data)
    RcvCount                                 0x2000002c   Data           4  lab6.o(.data)
    sequenceNum                              0x20000030   Data           1  lab6.o(.data)
    Running                                  0x20000034   Data           4  lab6.o(.data)
    WebServerSema                            0x20000038   Data           4  lab6.o(.data)
    MaxJitter                                0x2000003c   Data           4  os.o(.data)
    OStime_round                             0x20000040   Data           4  os.o(.data)
    OStime_Task1                             0x20000044   Data           4  os.o(.data)
    OStime_ms                                0x20000048   Data           4  os.o(.data)
    LCDFree                                  0x2000004c   Data           4  os.o(.data)
    TxRoomLeft                               0x20000050   Data           4  os.o(.data)
    RxDataAvailable                          0x20000054   Data           4  os.o(.data)
    SW_task                                  0x20000058   Data           4  os.o(.data)
    PeriodicTask4                            0x2000005c   Data           4  os.o(.data)
    RunPt                                    0x20000060   Data           4  os.o(.data)
    SchPt                                    0x20000064   Data           4  os.o(.data)
    StreamToDevice                           0x20000068   Data           4  os.o(.data)
    StX                                      0x2000006c   Data           4  st7735.o(.data)
    StY                                      0x20000070   Data           4  st7735.o(.data)
    StTextColor                              0x20000074   Data           2  st7735.o(.data)
    Messageindex                             0x20000080   Data           4  st7735.o(.data)
    Ymax                                     0x20000084   Data           4  st7735.o(.data)
    Ymin                                     0x20000088   Data           4  st7735.o(.data)
    X                                        0x2000008c   Data           4  st7735.o(.data)
    Yrange                                   0x20000090   Data           4  st7735.o(.data)
    lastj                                    0x20000094   Data           4  st7735.o(.data)
    max_length                               0x20000098   Data           4  interpreter.o(.data)
    command_counter                          0x2000009c   Data           4  interpreter.o(.data)
    pt_input_temp                            0x200000a0   Data           4  interpreter.o(.data)
    output_temp                              0x200000a4   Data           4  interpreter.o(.data)
    Client_pt_input_temp                     0x200000a8   Data           4  interpreter.o(.data)
    FileName                                 0x200000ac   Data           8  interpreter.o(.data)
    RxPutI                                   0x200000b4   Data           4  uart0int.o(.data)
    RxGetI                                   0x200000b8   Data           4  uart0int.o(.data)
    TxPutI                                   0x200000bc   Data           4  uart0int.o(.data)
    TxGetI                                   0x200000c0   Data           4  uart0int.o(.data)
    FileCreated                              0x200000d4   Data           4  efile.o(.data)
    MAX_FILE                                 0x200000d8   Data           4  efile.o(.data)
    WBlock                                   0x200000dc   Data           1  efile.o(.data)
    RBlock                                   0x200000dd   Data           1  efile.o(.data)
    WDir                                     0x200000e0   Data           4  efile.o(.data)
    RDir                                     0x200000e4   Data           4  efile.o(.data)
    WNum                                     0x200000e8   Data           4  efile.o(.data)
    RNum                                     0x200000ec   Data           4  efile.o(.data)
    WFinal                                   0x200000f0   Data           4  efile.o(.data)
    RFinal                                   0x200000f4   Data           4  efile.o(.data)
    ADCTask                                  0x20000100   Data           4  adct0atrigger.o(.data)
    PD3data                                  0x20000104   Data           4  adct0atrigger.o(.data)
    WidePeriodicTask0                        0x20000108   Data           4  wtimer0a.o(.data)
    RCV_ID                                   0x2000010c   Data           4  can0.o(.data)
    XMT_ID                                   0x20000110   Data           4  can0.o(.data)
    ESP8266_EchoResponse                     0x2000011c   Data           1  esp8266.o(.data)
    ESP8266_EchoCommand                      0x2000011d   Data           1  esp8266.o(.data)
    ESP8266RxPutI                            0x20000120   Data           4  esp8266.o(.data)
    ESP8266RxGetI                            0x20000124   Data           4  esp8266.o(.data)
    ESP8266Rx0PutI                           0x20000128   Data           4  esp8266.o(.data)
    ESP8266Rx0GetI                           0x2000012c   Data           4  esp8266.o(.data)
    ESP8266TxPutI                            0x20000130   Data           4  esp8266.o(.data)
    ESP8266TxGetI                            0x20000134   Data           4  esp8266.o(.data)
    ESP8266_Server                           0x20000138   Data           2  esp8266.o(.data)
    ESP8266_ConnectionMux                    0x2000013a   Data           2  esp8266.o(.data)
    ESP8266_Segment                          0x2000013c   Data           2  esp8266.o(.data)
    ESP8266_DataAvailable                    0x20000150   Data           4  esp8266.o(.data)
    ESP8266_DataLoss                         0x20000154   Data           4  esp8266.o(.data)
    PeriodicTask5                            0x20000158   Data           4  timer5a.o(.data)
    __stdout                                 0x20000160   Data           4  stdout.o(.data)
    JitterHistogram                          0x20000168   Data         256  os.o(.bss)
    OS_FIFO                                  0x20000268   Data         268  os.o(.bss)
    OS_MailBox                               0x20000374   Data          12  os.o(.bss)
    TCB_pool                                 0x20000380   Data         364  os.o(.bss)
    STACK_pool                               0x200004ec   Data        6656  os.o(.bss)
    Message                                  0x20001eec   Data          12  st7735.o(.bss)
    input_temp                               0x20001ef8   Data          32  interpreter.o(.bss)
    command                                  0x20001f18   Data          16  interpreter.o(.bss)
    Client_input_temp                        0x20001f28   Data          32  interpreter.o(.bss)
    ClientTX                                 0x20001f48   Data          32  interpreter.o(.bss)
    ClientRX                                 0x20001f68   Data          32  interpreter.o(.bss)
    FAT                                      0x20002788   Data         512  efile.o(.bss)
    Wbuffer                                  0x20002988   Data         512  efile.o(.bss)
    Rbuffer                                  0x20002b88   Data         512  efile.o(.bss)
    Dir                                      0x20002d88   Data        2048  efile.o(.bss)
    Heap                                     0x20003588   Data         264  heap.o(.bss)
    Heap_Dir                                 0x20003690   Data         792  heap.o(.bss)
    __initial_sp                             0x20004c48   Data           0  startup.o(STACK)



==============================================================================

Memory Map of the image

  Image Entry point : 0x0000026d

  Load Region LR_1 (Base: 0x00000000, Size: 0x00008bb0, Max: 0xffffffff, ABSOLUTE, COMPRESSED[0x00008a74])

    Execution Region ER_RO (Exec base: 0x00000000, Load base: 0x00000000, Size: 0x00008a48, Max: 0xffffffff, ABSOLUTE)

    Exec Addr    Load Addr    Size         Type   Attr      Idx    E Section Name        Object

    0x00000000   0x00000000   0x00000284   Code   RO            3  * RESET               startup.o
    0x00000284   0x00000284   0x00000000   Code   RO         2911  * .ARM.Collect$$$$00000000  mc_w.l(entry.o)
    0x00000284   0x00000284   0x00000004   Code   RO         3205    .ARM.Collect$$$$00000001  mc_w.l(entry2.o)
    0x00000288   0x00000288   0x00000004   Code   RO         3208    .ARM.Collect$$$$00000004  mc_w.l(entry5.o)
    0x0000028c   0x0000028c   0x00000000   Code   RO         3210    .ARM.Collect$$$$00000008  mc_w.l(entry7b.o)
    0x0000028c   0x0000028c   0x00000000   Code   RO         3212    .ARM.Collect$$$$0000000A  mc_w.l(entry8b.o)
    0x0000028c   0x0000028c   0x00000008   Code   RO         3213    .ARM.Collect$$$$0000000B  mc_w.l(entry9a.o)
    0x00000294   0x00000294   0x00000004   Code   RO         3220    .ARM.Collect$$$$0000000E  mc_w.l(entry12b.o)
    0x00000298   0x00000298   0x00000000   Code   RO         3215    .ARM.Collect$$$$0000000F  mc_w.l(entry10a.o)
    0x00000298   0x00000298   0x00000000   Code   RO         3217    .ARM.Collect$$$$00000011  mc_w.l(entry11a.o)
    0x00000298   0x00000298   0x00000004   Code   RO         3206    .ARM.Collect$$$$00002712  mc_w.l(entry2.o)
    0x0000029c   0x0000029c   0x0000001c   Code   RO            4    .text               startup.o
    0x000002b8   0x000002b8   0x000000b8   Code   RO         1606    .text               osasm.o
    0x00000370   0x00000370   0x00000024   Code   RO         2914    .text               mc_w.l(memcpya.o)
    0x00000394   0x00000394   0x00000018   Code   RO         2916    .text               mc_w.l(strcat.o)
    0x000003ac   0x000003ac   0x0000000e   Code   RO         2922    .text               mc_w.l(strlen.o)
    0x000003ba   0x000003ba   0x0000001c   Code   RO         2924    .text               mc_w.l(strcmp.o)
    0x000003d6   0x000003d6   0x0000001a   Code   RO         2926    .text               mc_w.l(memcmp.o)
    0x000003f0   0x000003f0   0x00000012   Code   RO         2928    .text               mc_w.l(strcpy.o)
    0x00000402   0x00000402   0x00000002   PAD
    0x00000404   0x00000404   0x00000044   Code   RO         2932    .text               mc_w.l(strtok.o)
    0x00000448   0x00000448   0x00000070   Code   RO         3201    .text               mc_w.l(strtol.o)
    0x000004b8   0x000004b8   0x0000002c   Code   RO         3222    .text               mc_w.l(uidiv.o)
    0x000004e4   0x000004e4   0x00000008   Code   RO         3226    .text               mc_w.l(ctype_o.o)
    0x000004ec   0x000004ec   0x0000009e   Code   RO         3261    .text               mc_w.l(_strtoul.o)
    0x0000058a   0x0000058a   0x00000002   PAD
    0x0000058c   0x0000058c   0x00000024   Code   RO         3274    .text               mc_w.l(init.o)
    0x000005b0   0x000005b0   0x0000001c   Code   RO         3282    .text               mc_w.l(_chval.o)
    0x000005cc   0x000005cc   0x0000003a   Code   RO         3294    .text               mc_w.l(__dczerorl.o)
    0x00000606   0x00000606   0x00000002   PAD
    0x00000608   0x00000608   0x00000024   Code   RO         1609    i.ADC0Seq0_Handler  adct0atrigger.o
    0x0000062c   0x0000062c   0x0000001c   Code   RO         1610    i.ADC0Seq3_Handler  adct0atrigger.o
    0x00000648   0x00000648   0x0000002c   Code   RO         1735    i.ADC_In            adc.o
    0x00000674   0x00000674   0x000003e4   Code   RO         1736    i.ADC_Init          adc.o
    0x00000a58   0x00000a58   0x000000ac   Code   RO           81    i.Buck_Fun          lab6.o
    0x00000b04   0x00000b04   0x00000088   Code   RO         2345    i.CAN0_Handler      can0.o
    0x00000b8c   0x00000b8c   0x000000e4   Code   RO         2346    i.CAN0_Open         can0.o
    0x00000c70   0x00000c70   0x00000030   Code   RO         2348    i.CAN0_Setup_Message_Object  can0.o
    0x00000ca0   0x00000ca0   0x00000094   Code   RO         2180    i.CANBitRateSet     can.o
    0x00000d34   0x00000d34   0x00000036   Code   RO         2181    i.CANDataRegRead    can.o
    0x00000d6a   0x00000d6a   0x00000036   Code   RO         2182    i.CANDataRegWrite   can.o
    0x00000da0   0x00000da0   0x00000018   Code   RO         2184    i.CANEnable         can.o
    0x00000db8   0x00000db8   0x0000009a   Code   RO         2186    i.CANInit           can.o
    0x00000e52   0x00000e52   0x00000050   Code   RO         2187    i.CANIntClear       can.o
    0x00000ea2   0x00000ea2   0x0000001a   Code   RO         2189    i.CANIntEnable      can.o
    0x00000ebc   0x00000ebc   0x00000028   Code   RO         2190    i.CANIntNumberGet   can.o
    0x00000ee4   0x00000ee4   0x0000003c   Code   RO         2192    i.CANIntStatus      can.o
    0x00000f20   0x00000f20   0x000001b6   Code   RO         2195    i.CANMessageGet     can.o
    0x000010d6   0x000010d6   0x000001b4   Code   RO         2196    i.CANMessageSet     can.o
    0x0000128a   0x0000128a   0x00000002   PAD
    0x0000128c   0x0000128c   0x0000004c   Code   RO         2197    i.CANRegRead        can.o
    0x000012d8   0x000012d8   0x00000018   Code   RO         2198    i.CANRegWrite       can.o
    0x000012f0   0x000012f0   0x0000007c   Code   RO         2201    i.CANStatusGet      can.o
    0x0000136c   0x0000136c   0x0000008c   Code   RO         1071    i.CS_Init           edisk.o
    0x000013f8   0x000013f8   0x00000710   Code   RO          849    i.Client            interpreter.o
    0x00001b08   0x00001b08   0x00000084   Code   RO          850    i.ClientSend        interpreter.o
    0x00001b8c   0x00001b8c   0x00000020   Code   RO          573    i.Delay1ms          st7735.o
    0x00001bac   0x00001bac   0x00000020   Code   RO         2419    i.DelayMs           esp8266.o
    0x00001bcc   0x00001bcc   0x0000003c   Code   RO         2420    i.ESP8266BufferToTx  esp8266.o
    0x00001c08   0x00001c08   0x0000003c   Code   RO         2421    i.ESP8266Rx0Fifo_Get  esp8266.o
    0x00001c44   0x00001c44   0x00000014   Code   RO         2422    i.ESP8266Rx0Fifo_Init  esp8266.o
    0x00001c58   0x00001c58   0x0000003c   Code   RO         2423    i.ESP8266Rx0Fifo_Put  esp8266.o
    0x00001c94   0x00001c94   0x00000018   Code   RO         2424    i.ESP8266Rx0Fifo_Size  esp8266.o
    0x00001cac   0x00001cac   0x0000003c   Code   RO         2425    i.ESP8266RxFifo_Get  esp8266.o
    0x00001ce8   0x00001ce8   0x00000014   Code   RO         2426    i.ESP8266RxFifo_Init  esp8266.o
    0x00001cfc   0x00001cfc   0x0000003c   Code   RO         2427    i.ESP8266RxFifo_Put  esp8266.o
    0x00001d38   0x00001d38   0x00000018   Code   RO         2428    i.ESP8266RxFifo_Size  esp8266.o
    0x00001d50   0x00001d50   0x00000044   Code   RO         2429    i.ESP8266RxToBuffer  esp8266.o
    0x00001d94   0x00001d94   0x0000003c   Code   RO         2430    i.ESP8266TxFifo_Get  esp8266.o
    0x00001dd0   0x00001dd0   0x00000014   Code   RO         2431    i.ESP8266TxFifo_Init  esp8266.o
    0x00001de4   0x00001de4   0x0000003c   Code   RO         2432    i.ESP8266TxFifo_Put  esp8266.o
    0x00001e20   0x00001e20   0x00000018   Code   RO         2433    i.ESP8266TxFifo_Size  esp8266.o
    0x00001e38   0x00001e38   0x00000064   Code   RO         2434    i.ESP8266_CloseTCPConnection  esp8266.o
    0x00001e9c   0x00001e9c   0x0000006c   Code   RO         2436    i.ESP8266_Connect   esp8266.o
    0x00001f08   0x00001f08   0x0000000c   Code   RO         2437    i.ESP8266_DisableInterrupt  esp8266.o
    0x00001f14   0x00001f14   0x00000024   Code   RO         2439    i.ESP8266_EnableInterrupt  esp8266.o
    0x00001f38   0x00001f38   0x00000038   Code   RO         2441    i.ESP8266_GetIPAddress  esp8266.o
    0x00001f70   0x00001f70   0x00000038   Code   RO         2442    i.ESP8266_GetMACAddress  esp8266.o
    0x00001fa8   0x00001fa8   0x00000034   Code   RO         2444    i.ESP8266_GetVersionNumber  esp8266.o
    0x00001fdc   0x00001fdc   0x00000014   Code   RO         2445    i.ESP8266_InChar    esp8266.o
    0x00001ff0   0x00001ff0   0x000000d8   Code   RO         2446    i.ESP8266_Init      esp8266.o
    0x000020c8   0x000020c8   0x00000104   Code   RO         2447    i.ESP8266_InitUART  esp8266.o
    0x000021cc   0x000021cc   0x0000005c   Code   RO         2448    i.ESP8266_JoinAccessPoint  esp8266.o
    0x00002228   0x00002228   0x00000038   Code   RO         2449    i.ESP8266_ListAccessPoints  esp8266.o
    0x00002260   0x00002260   0x00000078   Code   RO         2450    i.ESP8266_MakeTCPConnection  esp8266.o
    0x000022d8   0x000022d8   0x00000034   Code   RO         2451    i.ESP8266_OutChar   esp8266.o
    0x0000230c   0x0000230c   0x000000b4   Code   RO         2453    i.ESP8266_Receive   esp8266.o
    0x000023c0   0x000023c0   0x00000034   Code   RO         2454    i.ESP8266_Reset     esp8266.o
    0x000023f4   0x000023f4   0x00000098   Code   RO         2456    i.ESP8266_Send      esp8266.o
    0x0000248c   0x0000248c   0x0000001a   Code   RO         2459    i.ESP8266_SendCommand  esp8266.o
    0x000024a6   0x000024a6   0x00000002   PAD
    0x000024a8   0x000024a8   0x00000048   Code   RO         2463    i.ESP8266_SetWifiMode  esp8266.o
    0x000024f0   0x000024f0   0x0000006c   Code   RO         2467    i.ESP8266_WaitForResponse  esp8266.o
    0x0000255c   0x0000255c   0x00000018   Code   RO          285    i.GPIOPortF_Handler  os.o
    0x00002574   0x00002574   0x000000ac   Code   RO         1950    i.Heap_Free         heap.o
    0x00002620   0x00002620   0x00000050   Code   RO         1951    i.Heap_Init         heap.o
    0x00002670   0x00002670   0x000000b4   Code   RO         1952    i.Heap_Malloc       heap.o
    0x00002724   0x00002724   0x0000001c   Code   RO           88    i.Idle              lab6.o
    0x00002740   0x00002740   0x00000064   Code   RO           89    i.Init              lab6.o
    0x000027a4   0x000027a4   0x00000074   Code   RO         2743    i.IntDisable        interrupt.o
    0x00002818   0x00002818   0x00000074   Code   RO         2744    i.IntEnable         interrupt.o
    0x0000288c   0x0000288c   0x00000968   Code   RO          851    i.Interpreter       interpreter.o
    0x000031f4   0x000031f4   0x000000e4   Code   RO          852    i.Jitter            interpreter.o
    0x000032d8   0x000032d8   0x0000000e   Code   RO         1955    i.Judge_Free_Space  heap.o
    0x000032e6   0x000032e6   0x00000018   Code   RO         2000    i.LOADER_CLEAR      loader.o
    0x000032fe   0x000032fe   0x00000002   PAD
    0x00003300   0x00003300   0x0000001c   Code   RO         2001    i.LOADER_OPEN_FOR_RD  loader.o
    0x0000331c   0x0000331c   0x0000001e   Code   RO         2002    i.LOADER_READ       loader.o
    0x0000333a   0x0000333a   0x00000002   PAD
    0x0000333c   0x0000333c   0x00000020   Code   RO          286    i.OSTtask           os.o
    0x0000335c   0x0000335c   0x00000064   Code   RO          287    i.OS_AddPeriodicThread  os.o
    0x000033c0   0x000033c0   0x0000000a   Code   RO          288    i.OS_AddProcess     os.o
    0x000033ca   0x000033ca   0x00000002   PAD
    0x000033cc   0x000033cc   0x000002fc   Code   RO          291    i.OS_AddThread      os.o
    0x000036c8   0x000036c8   0x00000048   Code   RO          292    i.OS_ClearMsTime    os.o
    0x00003710   0x00003710   0x0000001c   Code   RO          293    i.OS_EndRedirectToFile  os.o
    0x0000372c   0x0000372c   0x00000004   Code   RO          298    i.OS_Id             os.o
    0x00003730   0x00003730   0x000000b4   Code   RO          299    i.OS_Init           os.o
    0x000037e4   0x000037e4   0x00000004   Code   RO          300    i.OS_InitSemaphore  os.o
    0x000037e8   0x000037e8   0x0000006c   Code   RO          301    i.OS_Kill           os.o
    0x00003854   0x00003854   0x00000034   Code   RO          302    i.OS_Launch         os.o
    0x00003888   0x00003888   0x00000038   Code   RO          307    i.OS_MsTime         os.o
    0x000038c0   0x000038c0   0x00000018   Code   RO          311    i.OS_Signal         os.o
    0x000038d8   0x000038d8   0x0000004c   Code   RO          312    i.OS_Sleep          os.o
    0x00003924   0x00003924   0x0000002c   Code   RO          314    i.OS_Time           os.o
    0x00003950   0x00003950   0x00000024   Code   RO          317    i.OS_Wait           os.o
    0x00003974   0x00003974   0x0000007c   Code   RO           66    i.PLL_Init          pll.o
    0x000039f0   0x000039f0   0x000000f4   Code   RO           90    i.PortD_Init        lab6.o
    0x00003ae4   0x00003ae4   0x00000154   Code   RO         2468    i.ReceiveDataFilter  esp8266.o
    0x00003c38   0x00003c38   0x0000003c   Code   RO          911    i.RxFifo_Get        uart0int.o
    0x00003c74   0x00003c74   0x00000014   Code   RO          912    i.RxFifo_Init       uart0int.o
    0x00003c88   0x00003c88   0x0000003c   Code   RO          913    i.RxFifo_Put        uart0int.o
    0x00003cc4   0x00003cc4   0x00000018   Code   RO          914    i.RxFifo_Size       uart0int.o
    0x00003cdc   0x00003cdc   0x0000014c   Code   RO         1072    i.SSI0_Init         edisk.o
    0x00003e28   0x00003e28   0x00000018   Code   RO          574    i.ST7735_Color565   st7735.o
    0x00003e40   0x00003e40   0x000000f8   Code   RO          577    i.ST7735_DrawCharS  st7735.o
    0x00003f38   0x00003f38   0x00000048   Code   RO          581    i.ST7735_DrawPixel  st7735.o
    0x00003f80   0x00003f80   0x00000056   Code   RO          583    i.ST7735_DrawString  st7735.o
    0x00003fd6   0x00003fd6   0x00000002   PAD
    0x00003fd8   0x00003fd8   0x000000ac   Code   RO          584    i.ST7735_FillRect   st7735.o
    0x00004084   0x00004084   0x00000024   Code   RO          585    i.ST7735_FillScreen  st7735.o
    0x000040a8   0x000040a8   0x00000088   Code   RO          587    i.ST7735_InitR      st7735.o
    0x00004130   0x00004130   0x000000a8   Code   RO          589    i.ST7735_Message    st7735.o
    0x000041d8   0x000041d8   0x000000d4   Code   RO          590    i.ST7735_OutChar    st7735.o
    0x000042ac   0x000042ac   0x0000008c   Code   RO          592    i.ST7735_OutUDec    st7735.o
    0x00004338   0x00004338   0x00000020   Code   RO          604    i.ST7735_SetCursor  st7735.o
    0x00004358   0x00004358   0x00000038   Code   RO          320    i.SysTick_Handler   os.o
    0x00004390   0x00004390   0x0000002c   Code   RO          321    i.SysTick_Init      os.o
    0x000043bc   0x000043bc   0x00000018   Code   RO          322    i.Timer4A_Handler   os.o
    0x000043d4   0x000043d4   0x00000018   Code   RO         2884    i.Timer5A_Handler   timer5a.o
    0x000043ec   0x000043ec   0x00000060   Code   RO         2885    i.Timer5A_Init      timer5a.o
    0x0000444c   0x0000444c   0x0000003c   Code   RO          915    i.TxFifo_Get        uart0int.o
    0x00004488   0x00004488   0x00000014   Code   RO          916    i.TxFifo_Init       uart0int.o
    0x0000449c   0x0000449c   0x0000003c   Code   RO          917    i.TxFifo_Put        uart0int.o
    0x000044d8   0x000044d8   0x00000018   Code   RO          918    i.TxFifo_Size       uart0int.o
    0x000044f0   0x000044f0   0x00000058   Code   RO          919    i.UART0_Handler     uart0int.o
    0x00004548   0x00004548   0x00000058   Code   RO         2469    i.UART2_Handler     esp8266.o
    0x000045a0   0x000045a0   0x00000020   Code   RO          921    i.UART_InChar       uart0int.o
    0x000045c0   0x000045c0   0x00000046   Code   RO          923    i.UART_InString     uart0int.o
    0x00004606   0x00004606   0x00000002   PAD
    0x00004608   0x00004608   0x000000c8   Code   RO          926    i.UART_Init         uart0int.o
    0x000046d0   0x000046d0   0x0000003c   Code   RO          927    i.UART_OutChar      uart0int.o
    0x0000470c   0x0000470c   0x00000034   Code   RO          928    i.UART_OutCharNonBlock  uart0int.o
    0x00004740   0x00004740   0x00000018   Code   RO          930    i.UART_OutString    uart0int.o
    0x00004758   0x00004758   0x0000002a   Code   RO          931    i.UART_OutUDec      uart0int.o
    0x00004782   0x00004782   0x00000002   PAD
    0x00004784   0x00004784   0x0000004c   Code   RO          323    i.WDTimer0A_task    os.o
    0x000047d0   0x000047d0   0x00000018   Code   RO         1922    i.WideTimer0A_Handler  wtimer0a.o
    0x000047e8   0x000047e8   0x00000064   Code   RO         1923    i.WideTimer0A_Init  wtimer0a.o
    0x0000484c   0x0000484c   0x00000020   Code   RO         2985    i.__0printf$1       mc_w.l(printf1.o)
    0x0000486c   0x0000486c   0x00000028   Code   RO         2987    i.__0sprintf$1      mc_w.l(printf1.o)
    0x00004894   0x00004894   0x00000008   Code   RO         3254    i.__aeabi_errno_addr  mc_w.l(errno.o)
    0x0000489c   0x0000489c   0x0000000e   Code   RO         3288    i.__scatterload_copy  mc_w.l(handlers.o)
    0x000048aa   0x000048aa   0x00000002   Code   RO         3289    i.__scatterload_null  mc_w.l(handlers.o)
    0x000048ac   0x000048ac   0x0000000e   Code   RO         3290    i.__scatterload_zeroinit  mc_w.l(handlers.o)
    0x000048ba   0x000048ba   0x00000002   PAD
    0x000048bc   0x000048bc   0x00000154   Code   RO         2992    i._printf_core      mc_w.l(printf1.o)
    0x00004a10   0x00004a10   0x0000000a   Code   RO         2994    i._sputc            mc_w.l(printf1.o)
    0x00004a1a   0x00004a1a   0x00000058   Code   RO         2004    i.addressOf         loader.o
    0x00004a72   0x00004a72   0x00000002   PAD
    0x00004a74   0x00004a74   0x00000090   Code   RO         1304    i.check_fs          ff.o
    0x00004b04   0x00004b04   0x00000018   Code   RO         1305    i.chk_chr           ff.o
    0x00004b1c   0x00004b1c   0x0000001a   Code   RO         1306    i.clust2sect        ff.o
    0x00004b36   0x00004b36   0x00000056   Code   RO          608    i.commandList       st7735.o
    0x00004b8c   0x00004b8c   0x0000018c   Code   RO          609    i.commonInit        st7735.o
    0x00004d18   0x00004d18   0x00000038   Code   RO          933    i.copyHardwareToSoftware  uart0int.o
    0x00004d50   0x00004d50   0x00000034   Code   RO          934    i.copySoftwareToHardware  uart0int.o
    0x00004d84   0x00004d84   0x000000d6   Code   RO         1307    i.create_chain      ff.o
    0x00004e5a   0x00004e5a   0x00000002   PAD
    0x00004e5c   0x00004e5c   0x000001b4   Code   RO         1308    i.create_name       ff.o
    0x00005010   0x00005010   0x00000014   Code   RO         1073    i.deselect          edisk.o
    0x00005024   0x00005024   0x0000005c   Code   RO         1309    i.dir_alloc         ff.o
    0x00005080   0x00005080   0x0000005c   Code   RO         1310    i.dir_find          ff.o
    0x000050dc   0x000050dc   0x00000110   Code   RO         1311    i.dir_next          ff.o
    0x000051ec   0x000051ec   0x0000003a   Code   RO         1313    i.dir_register      ff.o
    0x00005226   0x00005226   0x0000009e   Code   RO         1315    i.dir_sdi           ff.o
    0x000052c4   0x000052c4   0x00000228   Code   RO         1074    i.disk_ioctl        edisk.o
    0x000054ec   0x000054ec   0x00000040   Code   RO         1075    i.disk_timerproc    edisk.o
    0x0000552c   0x0000552c   0x00000002   Code   RO         2005    i.dumpData          loader.o
    0x0000552e   0x0000552e   0x00000002   PAD
    0x00005530   0x00005530   0x0000015c   Code   RO         1076    i.eDisk_Init        edisk.o
    0x0000568c   0x0000568c   0x00000090   Code   RO         1077    i.eDisk_Read        edisk.o
    0x0000571c   0x0000571c   0x00000014   Code   RO         1078    i.eDisk_ReadBlock   edisk.o
    0x00005730   0x00005730   0x00000014   Code   RO         1079    i.eDisk_Status      edisk.o
    0x00005744   0x00005744   0x000000b4   Code   RO         1080    i.eDisk_Write       edisk.o
    0x000057f8   0x000057f8   0x00000014   Code   RO         1081    i.eDisk_WriteBlock  edisk.o
    0x0000580c   0x0000580c   0x00000064   Code   RO         1195    i.eFile_Create      efile.o
    0x00005870   0x00005870   0x00000114   Code   RO         1198    i.eFile_Delete      efile.o
    0x00005984   0x00005984   0x000000dc   Code   RO         1200    i.eFile_Format      efile.o
    0x00005a60   0x00005a60   0x0000000c   Code   RO         1201    i.eFile_Init        efile.o
    0x00005a6c   0x00005a6c   0x000000f8   Code   RO         1202    i.eFile_Mount       efile.o
    0x00005b64   0x00005b64   0x00000044   Code   RO         1203    i.eFile_RClose      efile.o
    0x00005ba8   0x00005ba8   0x0000007c   Code   RO         1204    i.eFile_ROpen       efile.o
    0x00005c24   0x00005c24   0x000000c4   Code   RO         1205    i.eFile_ReadNext    efile.o
    0x00005ce8   0x00005ce8   0x000000dc   Code   RO         1206    i.eFile_Unmount     efile.o
    0x00005dc4   0x00005dc4   0x00000100   Code   RO         1207    i.eFile_WClose      efile.o
    0x00005ec4   0x00005ec4   0x0000009c   Code   RO         1208    i.eFile_WOpen       efile.o
    0x00005f60   0x00005f60   0x00000100   Code   RO         1209    i.eFile_Write       efile.o
    0x00006060   0x00006060   0x000000e8   Code   RO         2006    i.exec_elf          loader.o
    0x00006148   0x00006148   0x00000020   Code   RO         1318    i.f_close           ff.o
    0x00006168   0x00006168   0x0000017e   Code   RO         1323    i.f_lseek           ff.o
    0x000062e6   0x000062e6   0x00000002   PAD
    0x000062e8   0x000062e8   0x00000164   Code   RO         1327    i.f_open            ff.o
    0x0000644c   0x0000644c   0x000001a0   Code   RO         1329    i.f_read            ff.o
    0x000065ec   0x000065ec   0x000000b0   Code   RO         1334    i.f_sync            ff.o
    0x0000669c   0x0000669c   0x00000048   Code   RO          610    i.fillmessage       st7735.o
    0x000066e4   0x000066e4   0x0000038c   Code   RO         1339    i.find_volume       ff.o
    0x00006a70   0x00006a70   0x000000b0   Code   RO         1340    i.follow_path       ff.o
    0x00006b20   0x00006b20   0x00000030   Code   RO          325    i.fputc             os.o
    0x00006b50   0x00006b50   0x0000000c   Code   RO         2007    i.freeElf           loader.o
    0x00006b5c   0x00006b5c   0x00000010   Code   RO         2008    i.freeSection       loader.o
    0x00006b6c   0x00006b6c   0x00000010   Code   RO         2009    i.freeSegment       loader.o
    0x00006b7c   0x00006b7c   0x000000f2   Code   RO         1341    i.get_fat           ff.o
    0x00006c6e   0x00006c6e   0x0000004a   Code   RO         1343    i.get_ldnumber      ff.o
    0x00006cb8   0x00006cb8   0x00000086   Code   RO         2010    i.initElf           loader.o
    0x00006d3e   0x00006d3e   0x00000002   PAD
    0x00006d40   0x00006d40   0x00000028   Code   RO         1082    i.init_spi          edisk.o
    0x00006d68   0x00006d68   0x00000048   Code   RO         2011    i.jumpTo            loader.o
    0x00006db0   0x00006db0   0x00000020   Code   RO         1344    i.ld_clust          ff.o
    0x00006dd0   0x00006dd0   0x000000ec   Code   RO         2012    i.loadProgram       loader.o
    0x00006ebc   0x00006ebc   0x000000ec   Code   RO         2013    i.loadSecData       loader.o
    0x00006fa8   0x00006fa8   0x000000f4   Code   RO         2014    i.loadSegData       loader.o
    0x0000709c   0x0000709c   0x000000c4   Code   RO         2015    i.loadSymbols       loader.o
    0x00007160   0x00007160   0x0000000a   Code   RO          102    i.main              lab6.o
    0x0000716a   0x0000716a   0x00000026   Code   RO         1345    i.mem_cmp           ff.o
    0x00007190   0x00007190   0x0000001a   Code   RO         1346    i.mem_cpy           ff.o
    0x000071aa   0x000071aa   0x00000014   Code   RO         1347    i.mem_set           ff.o
    0x000071be   0x000071be   0x00000034   Code   RO         1348    i.move_window       ff.o
    0x000071f2   0x000071f2   0x00000084   Code   RO         2016    i.placeDynamic      loader.o
    0x00007276   0x00007276   0x00000002   PAD
    0x00007278   0x00007278   0x00000154   Code   RO         2017    i.placeInfo         loader.o
    0x000073cc   0x000073cc   0x00000012   Code   RO          613    i.pushColor         st7735.o
    0x000073de   0x000073de   0x00000142   Code   RO         1349    i.put_fat           ff.o
    0x00007520   0x00007520   0x00000048   Code   RO         1083    i.rcvr_datablock    edisk.o
    0x00007568   0x00007568   0x00000030   Code   RO         1084    i.rcvr_spi          edisk.o
    0x00007598   0x00007598   0x00000018   Code   RO         1085    i.rcvr_spi_multi    edisk.o
    0x000075b0   0x000075b0   0x0000003e   Code   RO         2018    i.readSecHeader     loader.o
    0x000075ee   0x000075ee   0x0000003a   Code   RO         2019    i.readSection       loader.o
    0x00007628   0x00007628   0x00000044   Code   RO         2020    i.readSectionName   loader.o
    0x0000766c   0x0000766c   0x0000003a   Code   RO         2021    i.readSegHeader     loader.o
    0x000076a6   0x000076a6   0x00000072   Code   RO         2022    i.readSymbol        loader.o
    0x00007718   0x00007718   0x00000044   Code   RO         2023    i.readSymbolName    loader.o
    0x0000775c   0x0000775c   0x000000b0   Code   RO          103    i.realmain          lab6.o
    0x0000780c   0x0000780c   0x000000aa   Code   RO         2024    i.relJmpCall        loader.o
    0x000078b6   0x000078b6   0x00000002   PAD
    0x000078b8   0x000078b8   0x000000cc   Code   RO         2025    i.relocate          loader.o
    0x00007984   0x00007984   0x00000040   Code   RO         2026    i.relocateProgram   loader.o
    0x000079c4   0x000079c4   0x00000084   Code   RO         2027    i.relocateSection   loader.o
    0x00007a48   0x00007a48   0x00000048   Code   RO         2028    i.relocateSections  loader.o
    0x00007a90   0x00007a90   0x00000038   Code   RO         2029    i.relocateSymbol    loader.o
    0x00007ac8   0x00007ac8   0x0000006c   Code   RO         1350    i.remove_chain      ff.o
    0x00007b34   0x00007b34   0x00000046   Code   RO         2030    i.sectionOf         loader.o
    0x00007b7a   0x00007b7a   0x00000002   PAD
    0x00007b7c   0x00007b7c   0x00000030   Code   RO         1086    i.select            edisk.o
    0x00007bac   0x00007bac   0x00000096   Code   RO         1087    i.send_cmd          edisk.o
    0x00007c42   0x00007c42   0x00000002   PAD
    0x00007c44   0x00007c44   0x00000074   Code   RO          614    i.setAddrWindow     st7735.o
    0x00007cb8   0x00007cb8   0x00000010   Code   RO         1351    i.st_clust          ff.o
    0x00007cc8   0x00007cc8   0x000000c8   Code   RO         1352    i.sync_fs           ff.o
    0x00007d90   0x00007d90   0x00000052   Code   RO         1353    i.sync_window       ff.o
    0x00007de2   0x00007de2   0x00000036   Code   RO         1354    i.validate          ff.o
    0x00007e18   0x00007e18   0x00000030   Code   RO         1088    i.wait_ready        edisk.o
    0x00007e48   0x00007e48   0x00000050   Code   RO          615    i.writecommand      st7735.o
    0x00007e98   0x00007e98   0x00000054   Code   RO          616    i.writedata         st7735.o
    0x00007eec   0x00007eec   0x00000038   Code   RO         1089    i.xchg_spi          edisk.o
    0x00007f24   0x00007f24   0x0000004c   Code   RO         1090    i.xmit_datablock    edisk.o
    0x00007f70   0x00007f70   0x00000030   Code   RO         1091    i.xmit_spi_multi    edisk.o
    0x00007fa0   0x00007fa0   0x00000842   Data   RO          618    .constdata          st7735.o
    0x000087e2   0x000087e2   0x00000002   PAD
    0x000087e4   0x000087e4   0x00000010   Data   RO          854    .constdata          interpreter.o
    0x000087f4   0x000087f4   0x00000045   Data   RO         2032    .constdata          loader.o
    0x00008839   0x00008839   0x00000001   PAD
    0x0000883a   0x0000883a   0x00000012   Data   RO         2202    .constdata          can.o
    0x0000884c   0x0000884c   0x00000036   Data   RO         2472    .constdata          esp8266.o
    0x00008882   0x00008882   0x00000002   PAD
    0x00008884   0x00008884   0x0000010c   Data   RO         2760    .constdata          interrupt.o
    0x00008990   0x00008990   0x00000081   Data   RO         3227    .constdata          mc_w.l(ctype_o.o)
    0x00008a11   0x00008a11   0x00000003   PAD
    0x00008a14   0x00008a14   0x00000004   Data   RO         3228    .constdata          mc_w.l(ctype_o.o)
    0x00008a18   0x00008a18   0x0000000f   Data   RO          855    .conststring        interpreter.o
    0x00008a27   0x00008a27   0x00000001   PAD
    0x00008a28   0x00008a28   0x00000020   Data   RO         3286    Region$$Table       anon$$obj.o


    Execution Region ER_RW (Exec base: 0x20000000, Load base: 0x00008a48, Size: 0x00000168, Max: 0xffffffff, ABSOLUTE, COMPRESSED[0x0000002c])

    Exec Addr    Load Addr    Size         Type   Attr      Idx    E Section Name        Object

    0x20000000   COMPRESSED   0x0000003c   Data   RW          107    .data               lab6.o
    0x2000003c   COMPRESSED   0x00000030   Data   RW          328    .data               os.o
    0x2000006c   COMPRESSED   0x0000002c   Data   RW          619    .data               st7735.o
    0x20000098   COMPRESSED   0x0000001c   Data   RW          856    .data               interpreter.o
    0x200000b4   COMPRESSED   0x00000010   Data   RW          936    .data               uart0int.o
    0x200000c4   COMPRESSED   0x0000000d   Data   RW         1092    .data               edisk.o
    0x200000d1   COMPRESSED   0x00000003   PAD
    0x200000d4   COMPRESSED   0x00000024   Data   RW         1211    .data               efile.o
    0x200000f8   COMPRESSED   0x00000006   Data   RW         1356    .data               ff.o
    0x200000fe   COMPRESSED   0x00000002   PAD
    0x20000100   COMPRESSED   0x00000008   Data   RW         1614    .data               adct0atrigger.o
    0x20000108   COMPRESSED   0x00000004   Data   RW         1925    .data               wtimer0a.o
    0x2000010c   COMPRESSED   0x00000010   Data   RW         2349    .data               can0.o
    0x2000011c   COMPRESSED   0x0000003c   Data   RW         2473    .data               esp8266.o
    0x20000158   COMPRESSED   0x00000004   Data   RW         2887    .data               timer5a.o
    0x2000015c   COMPRESSED   0x00000004   Data   RW         2933    .data               mc_w.l(strtok.o)
    0x20000160   COMPRESSED   0x00000004   Data   RW         3221    .data               mc_w.l(stdout.o)
    0x20000164   COMPRESSED   0x00000004   Data   RW         3257    .data               mc_w.l(errno.o)


    Execution Region ER_ZI (Exec base: 0x20000168, Load base: 0x00008a74, Size: 0x00004ae0, Max: 0xffffffff, ABSOLUTE)

    Exec Addr    Load Addr    Size         Type   Attr      Idx    E Section Name        Object

    0x20000168        -       0x00001d84   Zero   RW          326    .bss                os.o
    0x20001eec        -       0x0000000c   Zero   RW          617    .bss                st7735.o
    0x20001ef8        -       0x00000090   Zero   RW          853    .bss                interpreter.o
    0x20001f88        -       0x00000800   Zero   RW          935    .bss                uart0int.o
    0x20002788        -       0x00000e00   Zero   RW         1210    .bss                efile.o
    0x20003588        -       0x00000420   Zero   RW         1956    .bss                heap.o
    0x200039a8        -       0x000002a0   Zero   RW         2031    .bss                loader.o
    0x20003c48        -       0x00000c00   Zero   RW         2471    .bss                esp8266.o
    0x20004848        -       0x00000400   Zero   RW            1    STACK               startup.o


==============================================================================

Image component sizes


      Code (inc. data)   RO Data    RW Data    ZI Data      Debug   Object Name

      1040         72          0          0          0       1380   adc.o
        64         20          0          8          0       2496   adct0atrigger.o
      1738         22         18          0          0      15153   can.o
       412         62          0         16          0       5163   can0.o
      2450        160          0         13          0      15124   edisk.o
      2132        232          0         36       3584      10324   efile.o
      2906        608         54         60       3072      25160   esp8266.o
      5228         48          0          6          0      28956   ff.o
       446         20          0          0       1056       3693   heap.o
      4576       1792         31         28        144       8430   interpreter.o
       232         16        268          0          0       2121   interrupt.o
       730        154          0         60          0       8009   lab6.o
         0          0          0          0          0       4508   launchpad.o
      3234        690         69          0        672      33121   loader.o
      1862        272          0         48       7556      15705   os.o
       184         14          0          0          0        356   osasm.o
       124          4          0          0          0        495   pll.o
      2210        242       2114         44         12      17556   st7735.o
       672        622          0          0       1024       1036   startup.o
       120         28          0          4          0       1685   timer5a.o
      1004        158          0         16       2048      11334   uart0int.o
       124         30          0          4          0       1717   wtimer0a.o

    ----------------------------------------------------------------------
     31522       5266       2592        348      19168     213522   Object Totals
         0          0         32          0          0          0   (incl. Generated)
        34          0          6          5          0          0   (incl. Padding)

    ----------------------------------------------------------------------

      Code (inc. data)   RO Data    RW Data    ZI Data      Debug   Library Member Name

        58          0          0          0          0          0   __dczerorl.o
        28          0          0          0          0         68   _chval.o
       158          0          0          0          0         92   _strtoul.o
         8          4        133          0          0         68   ctype_o.o
         0          0          0          0          0          0   entry.o
         0          0          0          0          0          0   entry10a.o
         0          0          0          0          0          0   entry11a.o
         4          0          0          0          0          0   entry12b.o
         8          4          0          0          0          0   entry2.o
         4          0          0          0          0          0   entry5.o
         0          0          0          0          0          0   entry7b.o
         0          0          0          0          0          0   entry8b.o
         8          4          0          0          0          0   entry9a.o
         8          4          0          4          0         68   errno.o
        30          0          0          0          0          0   handlers.o
        36          8          0          0          0         68   init.o
        26          0          0          0          0         80   memcmp.o
        36          0          0          0          0         68   memcpya.o
       422         20          0          0          0        336   printf1.o
         0          0          0          4          0          0   stdout.o
        24          0          0          0          0         68   strcat.o
        28          0          0          0          0         76   strcmp.o
        18          0          0          0          0         68   strcpy.o
        14          0          0          0          0         68   strlen.o
        68          6          0          4          0         80   strtok.o
       112          0          0          0          0         88   strtol.o
        44          0          0          0          0         80   uidiv.o

    ----------------------------------------------------------------------
      1150         50        136         12          0       1376   Library Totals
         8          0          3          0          0          0   (incl. Padding)

    ----------------------------------------------------------------------

      Code (inc. data)   RO Data    RW Data    ZI Data      Debug   Library Name

      1142         50        133         12          0       1376   mc_w.l

    ----------------------------------------------------------------------
      1150         50        136         12          0       1376   Library Totals

    ----------------------------------------------------------------------

==============================================================================


      Code (inc. data)   RO Data    RW Data    ZI Data      Debug   

     32672       5316       2728        360      19168     202650   Grand Totals
     32672       5316       2728         44      19168     202650   ELF Image Totals (compressed)
     32672       5316       2728         44          0          0   ROM Totals

==============================================================================

    Total RO  Size (Code + RO Data)                35400 (  34.57kB)
    Total RW  Size (RW Data + ZI Data)             19528 (  19.07kB)
    Total ROM Size (Code + RO Data + RW Data)      35444 (  34.61kB)

==============================================================================

